
5DOF_robotarm.elf:     file format elf32-avr

Sections:
Idx Name          Size      VMA       LMA       File off  Algn
  0 .data         0000020c  00800100  00003368  000033fc  2**0
                  CONTENTS, ALLOC, LOAD, DATA
  1 .text         00003368  00000000  00000000  00000094  2**1
                  CONTENTS, ALLOC, LOAD, READONLY, CODE
  2 .bss          000000d2  0080030c  0080030c  00003608  2**0
                  ALLOC
  3 .comment      0000005c  00000000  00000000  00003608  2**0
                  CONTENTS, READONLY
  4 .note.gnu.avr.deviceinfo 00000040  00000000  00000000  00003664  2**2
                  CONTENTS, READONLY
  5 .debug_aranges 00000160  00000000  00000000  000036a4  2**0
                  CONTENTS, READONLY, DEBUGGING
  6 .debug_info   000021d8  00000000  00000000  00003804  2**0
                  CONTENTS, READONLY, DEBUGGING
  7 .debug_abbrev 00000b28  00000000  00000000  000059dc  2**0
                  CONTENTS, READONLY, DEBUGGING
  8 .debug_line   0000103b  00000000  00000000  00006504  2**0
                  CONTENTS, READONLY, DEBUGGING
  9 .debug_frame  0000061c  00000000  00000000  00007540  2**2
                  CONTENTS, READONLY, DEBUGGING
 10 .debug_str    000007ab  00000000  00000000  00007b5c  2**0
                  CONTENTS, READONLY, DEBUGGING
 11 .debug_loc    000019bf  00000000  00000000  00008307  2**0
                  CONTENTS, READONLY, DEBUGGING
 12 .debug_ranges 000001d0  00000000  00000000  00009cc6  2**0
                  CONTENTS, READONLY, DEBUGGING

Disassembly of section .text:

00000000 <__vectors>:
       0:	0c 94 b6 00 	jmp	0x16c	; 0x16c <__ctors_end>
       4:	0c 94 d3 00 	jmp	0x1a6	; 0x1a6 <__bad_interrupt>
       8:	0c 94 d3 00 	jmp	0x1a6	; 0x1a6 <__bad_interrupt>
       c:	0c 94 d3 00 	jmp	0x1a6	; 0x1a6 <__bad_interrupt>
      10:	0c 94 d3 00 	jmp	0x1a6	; 0x1a6 <__bad_interrupt>
      14:	0c 94 d3 00 	jmp	0x1a6	; 0x1a6 <__bad_interrupt>
      18:	0c 94 d3 00 	jmp	0x1a6	; 0x1a6 <__bad_interrupt>
      1c:	0c 94 d3 00 	jmp	0x1a6	; 0x1a6 <__bad_interrupt>
      20:	0c 94 d3 00 	jmp	0x1a6	; 0x1a6 <__bad_interrupt>
      24:	0c 94 d3 00 	jmp	0x1a6	; 0x1a6 <__bad_interrupt>
      28:	0c 94 d3 00 	jmp	0x1a6	; 0x1a6 <__bad_interrupt>
      2c:	0c 94 fe 0f 	jmp	0x1ffc	; 0x1ffc <__vector_11>
      30:	0c 94 d3 00 	jmp	0x1a6	; 0x1a6 <__bad_interrupt>
      34:	0c 94 d3 00 	jmp	0x1a6	; 0x1a6 <__bad_interrupt>
      38:	0c 94 0c 10 	jmp	0x2018	; 0x2018 <__vector_14>
      3c:	0c 94 d3 00 	jmp	0x1a6	; 0x1a6 <__bad_interrupt>
      40:	0c 94 d3 00 	jmp	0x1a6	; 0x1a6 <__bad_interrupt>
      44:	0c 94 d3 00 	jmp	0x1a6	; 0x1a6 <__bad_interrupt>
      48:	0c 94 22 10 	jmp	0x2044	; 0x2044 <__vector_18>
      4c:	0c 94 d3 00 	jmp	0x1a6	; 0x1a6 <__bad_interrupt>
      50:	0c 94 d3 00 	jmp	0x1a6	; 0x1a6 <__bad_interrupt>
      54:	0c 94 d3 00 	jmp	0x1a6	; 0x1a6 <__bad_interrupt>
      58:	0c 94 d3 00 	jmp	0x1a6	; 0x1a6 <__bad_interrupt>
      5c:	0c 94 d3 00 	jmp	0x1a6	; 0x1a6 <__bad_interrupt>
      60:	0c 94 d3 00 	jmp	0x1a6	; 0x1a6 <__bad_interrupt>
      64:	0c 94 d3 00 	jmp	0x1a6	; 0x1a6 <__bad_interrupt>
      68:	07 2c       	mov	r0, r7
      6a:	7a a5       	ldd	r23, Y+42	; 0x2a
      6c:	ba 6c       	ori	r27, 0xCA	; 202
      6e:	c5 90       	lpm	r12, Z+
      70:	da 3b       	cpi	r29, 0xBA	; 186
      72:	93 65       	ori	r25, 0x53	; 83
      74:	fc 8b       	std	Y+20, r31	; 0x14
      76:	bc 53       	subi	r27, 0x3C	; 60
      78:	f8 10       	cpse	r15, r8
      7a:	fd 3c       	cpi	r31, 0xCD	; 205
      7c:	56 92       	lac	Z, r5
      7e:	83 4d       	sbci	r24, 0xD3	; 211
      80:	bd 87       	std	Y+13, r27	; 0x0d
      82:	9d 3a       	cpi	r25, 0xAD	; 173
      84:	b6 3d       	cpi	r27, 0xD6	; 214
      86:	cb c9       	rjmp	.-3178   	; 0xfffff41e <__eeprom_end+0xff7ef41e>
      88:	bf 5b       	subi	r27, 0xBF	; 191
      8a:	be 73       	andi	r27, 0x3E	; 62
      8c:	da 0f       	add	r29, r26
      8e:	c9 3f       	cpi	r28, 0xF9	; 249
      90:	05 a8       	ldd	r0, Z+53	; 0x35
      92:	4c cd       	rjmp	.-1384   	; 0xfffffb2c <__eeprom_end+0xff7efb2c>
      94:	b2 d4       	rcall	.+2404   	; 0x9fa <__stack+0xfb>
      96:	4e b9       	out	0x0e, r20	; 14
      98:	38 36       	cpi	r19, 0x68	; 104
      9a:	a9 02       	muls	r26, r25
      9c:	0c 50       	subi	r16, 0x0C	; 12
      9e:	b9 91       	ld	r27, Y+
      a0:	86 88       	ldd	r8, Z+22	; 0x16
      a2:	08 3c       	cpi	r16, 0xC8	; 200
      a4:	a6 aa       	std	Z+54, r10	; 0x36
      a6:	aa 2a       	or	r10, r26
      a8:	be 00       	.word	0x00be	; ????
      aa:	00 00       	nop
      ac:	80 3f       	cpi	r24, 0xF0	; 240
      ae:	07 63       	ori	r16, 0x37	; 55
      b0:	42 36       	cpi	r20, 0x62	; 98
      b2:	b7 9b       	sbis	0x16, 7	; 22
      b4:	d8 a7       	std	Y+40, r29	; 0x28
      b6:	1a 39       	cpi	r17, 0x9A	; 154
      b8:	68 56       	subi	r22, 0x68	; 104
      ba:	18 ae       	std	Y+56, r1	; 0x38
      bc:	ba ab       	std	Y+50, r27	; 0x32
      be:	55 8c       	ldd	r5, Z+29	; 0x1d
      c0:	1d 3c       	cpi	r17, 0xCD	; 205
      c2:	b7 cc       	rjmp	.-1682   	; 0xfffffa32 <__eeprom_end+0xff7efa32>
      c4:	57 63       	ori	r21, 0x37	; 55
      c6:	bd 6d       	ori	r27, 0xDD	; 221
      c8:	ed fd       	.word	0xfded	; ????
      ca:	75 3e       	cpi	r23, 0xE5	; 229
      cc:	f6 17       	cp	r31, r22
      ce:	72 31       	cpi	r23, 0x12	; 18
      d0:	bf 00       	.word	0x00bf	; ????
      d2:	00 00       	nop
      d4:	80 3f       	cpi	r24, 0xF0	; 240
      d6:	08 00       	.word	0x0008	; ????
      d8:	00 00       	nop
      da:	be 92       	st	-X, r11
      dc:	24 49       	sbci	r18, 0x94	; 148
      de:	12 3e       	cpi	r17, 0xE2	; 226
      e0:	ab aa       	std	Y+51, r10	; 0x33
      e2:	aa 2a       	or	r10, r26
      e4:	be cd       	rjmp	.-1156   	; 0xfffffc62 <__eeprom_end+0xff7efc62>
      e6:	cc cc       	rjmp	.-1640   	; 0xfffffa80 <__eeprom_end+0xff7efa80>
      e8:	4c 3e       	cpi	r20, 0xEC	; 236
      ea:	00 00       	nop
      ec:	00 80       	ld	r0, Z
      ee:	be ab       	std	Y+54, r27	; 0x36
      f0:	aa aa       	std	Y+50, r10	; 0x32
      f2:	aa 3e       	cpi	r26, 0xEA	; 234
      f4:	00 00       	nop
      f6:	00 00       	nop
      f8:	bf 00       	.word	0x00bf	; ????
      fa:	00 00       	nop
      fc:	80 3f       	cpi	r24, 0xF0	; 240
      fe:	00 00       	nop
     100:	00 00       	nop
     102:	00 08       	sbc	r0, r0
     104:	41 78       	andi	r20, 0x81	; 129
     106:	d3 bb       	out	0x13, r29	; 19
     108:	43 87       	std	Z+11, r20	; 0x0b
     10a:	d1 13       	cpse	r29, r17
     10c:	3d 19       	sub	r19, r13
     10e:	0e 3c       	cpi	r16, 0xCE	; 206
     110:	c3 bd       	out	0x23, r28	; 35
     112:	42 82       	std	Z+2, r4	; 0x02
     114:	ad 2b       	or	r26, r29
     116:	3e 68       	ori	r19, 0x8E	; 142
     118:	ec 82       	std	Y+4, r14	; 0x04
     11a:	76 be       	out	0x36, r7	; 54
     11c:	d9 8f       	std	Y+25, r29	; 0x19
     11e:	e1 a9       	ldd	r30, Z+49	; 0x31
     120:	3e 4c       	sbci	r19, 0xCE	; 206
     122:	80 ef       	ldi	r24, 0xF0	; 240
     124:	ff be       	out	0x3f, r15	; 63
     126:	01 c4       	rjmp	.+2050   	; 0x92a <__stack+0x2b>
     128:	ff 7f       	andi	r31, 0xFF	; 255
     12a:	3f 00       	.word	0x003f	; ????
     12c:	00 00       	nop
	...

00000130 <__trampolines_end>:
     130:	4e 41       	sbci	r20, 0x1E	; 30
     132:	4e 49       	Address 0x00000132 is out of bounds.
.word	0xffff	; ????

00000133 <pstr_inity>:
     133:	49 4e 49 54 59                                      INITY

00000138 <pstr_inf>:
     138:	49 4e 46                                            INF

0000013b <pwr_m10>:
     13b:	cd cc cc 3d 0a d7 23 3c 17 b7 d1 38 77 cc 2b 32     ...=..#<...8w.+2
     14b:	95 95 e6 24 1f b1 4f 0a                             ...$..O.

00000153 <pwr_p10>:
     153:	00 00 20 41 00 00 c8 42 00 40 1c 46 20 bc be 4c     .. A...B.@.F ..L
     163:	ca 1b 0e 5a ae c5 9d 74 00                          ...Z...t.

0000016c <__ctors_end>:
     16c:	11 24       	eor	r1, r1
     16e:	1f be       	out	0x3f, r1	; 63
     170:	cf ef       	ldi	r28, 0xFF	; 255
     172:	d8 e0       	ldi	r29, 0x08	; 8
     174:	de bf       	out	0x3e, r29	; 62
     176:	cd bf       	out	0x3d, r28	; 61

00000178 <__do_copy_data>:
     178:	13 e0       	ldi	r17, 0x03	; 3
     17a:	a0 e0       	ldi	r26, 0x00	; 0
     17c:	b1 e0       	ldi	r27, 0x01	; 1
     17e:	e8 e6       	ldi	r30, 0x68	; 104
     180:	f3 e3       	ldi	r31, 0x33	; 51
     182:	02 c0       	rjmp	.+4      	; 0x188 <__do_copy_data+0x10>
     184:	05 90       	lpm	r0, Z+
     186:	0d 92       	st	X+, r0
     188:	ac 30       	cpi	r26, 0x0C	; 12
     18a:	b1 07       	cpc	r27, r17
     18c:	d9 f7       	brne	.-10     	; 0x184 <__do_copy_data+0xc>

0000018e <__do_clear_bss>:
     18e:	23 e0       	ldi	r18, 0x03	; 3
     190:	ac e0       	ldi	r26, 0x0C	; 12
     192:	b3 e0       	ldi	r27, 0x03	; 3
     194:	01 c0       	rjmp	.+2      	; 0x198 <.do_clear_bss_start>

00000196 <.do_clear_bss_loop>:
     196:	1d 92       	st	X+, r1

00000198 <.do_clear_bss_start>:
     198:	ae 3d       	cpi	r26, 0xDE	; 222
     19a:	b2 07       	cpc	r27, r18
     19c:	e1 f7       	brne	.-8      	; 0x196 <.do_clear_bss_loop>
     19e:	0e 94 55 0c 	call	0x18aa	; 0x18aa <main>
     1a2:	0c 94 b2 19 	jmp	0x3364	; 0x3364 <_exit>

000001a6 <__bad_interrupt>:
     1a6:	0c 94 00 00 	jmp	0	; 0x0 <__vectors>

000001aa <rad_in_grad>:
//Zwei Vektoren subtrahieren -> Vektor
vec vec_subtract(vec *v1, vec *v2)
{
	vec v3 = {v1->x - v2->x, v1->y - v2->y, v1->z - v2->z};
	return v3;
}
     1aa:	cf 92       	push	r12
     1ac:	df 92       	push	r13
     1ae:	ef 92       	push	r14
     1b0:	ff 92       	push	r15
     1b2:	6b 01       	movw	r12, r22
     1b4:	7c 01       	movw	r14, r24
     1b6:	20 91 44 01 	lds	r18, 0x0144	; 0x800144 <PI>
     1ba:	30 91 45 01 	lds	r19, 0x0145	; 0x800145 <PI+0x1>
     1be:	40 91 46 01 	lds	r20, 0x0146	; 0x800146 <PI+0x2>
     1c2:	50 91 47 01 	lds	r21, 0x0147	; 0x800147 <PI+0x3>
     1c6:	60 e0       	ldi	r22, 0x00	; 0
     1c8:	70 e0       	ldi	r23, 0x00	; 0
     1ca:	84 e3       	ldi	r24, 0x34	; 52
     1cc:	93 e4       	ldi	r25, 0x43	; 67
     1ce:	0e 94 e1 10 	call	0x21c2	; 0x21c2 <__divsf3>
     1d2:	a7 01       	movw	r20, r14
     1d4:	96 01       	movw	r18, r12
     1d6:	0e 94 bf 12 	call	0x257e	; 0x257e <__mulsf3>
     1da:	ff 90       	pop	r15
     1dc:	ef 90       	pop	r14
     1de:	df 90       	pop	r13
     1e0:	cf 90       	pop	r12
     1e2:	08 95       	ret

000001e4 <usart_init>:
     1e4:	10 92 c5 00 	sts	0x00C5, r1	; 0x8000c5 <__TEXT_REGION_LENGTH__+0x7f80c5>
     1e8:	87 e6       	ldi	r24, 0x67	; 103
     1ea:	80 93 c4 00 	sts	0x00C4, r24	; 0x8000c4 <__TEXT_REGION_LENGTH__+0x7f80c4>
     1ee:	88 e9       	ldi	r24, 0x98	; 152
     1f0:	80 93 c1 00 	sts	0x00C1, r24	; 0x8000c1 <__TEXT_REGION_LENGTH__+0x7f80c1>
     1f4:	86 e0       	ldi	r24, 0x06	; 6
     1f6:	80 93 c2 00 	sts	0x00C2, r24	; 0x8000c2 <__TEXT_REGION_LENGTH__+0x7f80c2>
     1fa:	08 95       	ret

000001fc <usart_send_char>:
     1fc:	90 91 c0 00 	lds	r25, 0x00C0	; 0x8000c0 <__TEXT_REGION_LENGTH__+0x7f80c0>
     200:	95 ff       	sbrs	r25, 5
     202:	fc cf       	rjmp	.-8      	; 0x1fc <usart_send_char>
     204:	80 93 c6 00 	sts	0x00C6, r24	; 0x8000c6 <__TEXT_REGION_LENGTH__+0x7f80c6>
     208:	08 95       	ret

0000020a <usart_send_strg>:
     20a:	cf 93       	push	r28
     20c:	df 93       	push	r29
     20e:	ec 01       	movw	r28, r24
     210:	03 c0       	rjmp	.+6      	; 0x218 <usart_send_strg+0xe>
     212:	0e 94 fe 00 	call	0x1fc	; 0x1fc <usart_send_char>
     216:	21 96       	adiw	r28, 0x01	; 1
     218:	88 81       	ld	r24, Y
     21a:	81 11       	cpse	r24, r1
     21c:	fa cf       	rjmp	.-12     	; 0x212 <usart_send_strg+0x8>
     21e:	df 91       	pop	r29
     220:	cf 91       	pop	r28
     222:	08 95       	ret

00000224 <pars_rx_strg>:
     224:	df 92       	push	r13
     226:	ef 92       	push	r14
     228:	ff 92       	push	r15
     22a:	0f 93       	push	r16
     22c:	1f 93       	push	r17
     22e:	cf 93       	push	r28
     230:	df 93       	push	r29
     232:	cd b7       	in	r28, 0x3d	; 61
     234:	de b7       	in	r29, 0x3e	; 62
     236:	28 97       	sbiw	r28, 0x08	; 8
     238:	0f b6       	in	r0, 0x3f	; 63
     23a:	f8 94       	cli
     23c:	de bf       	out	0x3e, r29	; 62
     23e:	0f be       	out	0x3f, r0	; 63
     240:	cd bf       	out	0x3d, r28	; 61
     242:	7b 01       	movw	r14, r22
     244:	2c e2       	ldi	r18, 0x2C	; 44
     246:	30 e0       	ldi	r19, 0x00	; 0
     248:	38 87       	std	Y+8, r19	; 0x08
     24a:	2f 83       	std	Y+7, r18	; 0x07
     24c:	be 01       	movw	r22, r28
     24e:	69 5f       	subi	r22, 0xF9	; 249
     250:	7f 4f       	sbci	r23, 0xFF	; 255
     252:	0e 94 10 15 	call	0x2a20	; 0x2a20 <strtok>
     256:	9a 83       	std	Y+2, r25	; 0x02
     258:	89 83       	std	Y+1, r24	; 0x01
     25a:	d1 2c       	mov	r13, r1
     25c:	14 c0       	rjmp	.+40     	; 0x286 <pars_rx_strg+0x62>
     25e:	d3 94       	inc	r13
     260:	0d 2d       	mov	r16, r13
     262:	10 e0       	ldi	r17, 0x00	; 0
     264:	be 01       	movw	r22, r28
     266:	69 5f       	subi	r22, 0xF9	; 249
     268:	7f 4f       	sbci	r23, 0xFF	; 255
     26a:	80 e0       	ldi	r24, 0x00	; 0
     26c:	90 e0       	ldi	r25, 0x00	; 0
     26e:	0e 94 10 15 	call	0x2a20	; 0x2a20 <strtok>
     272:	00 0f       	add	r16, r16
     274:	11 1f       	adc	r17, r17
     276:	e1 e0       	ldi	r30, 0x01	; 1
     278:	f0 e0       	ldi	r31, 0x00	; 0
     27a:	ec 0f       	add	r30, r28
     27c:	fd 1f       	adc	r31, r29
     27e:	e0 0f       	add	r30, r16
     280:	f1 1f       	adc	r31, r17
     282:	91 83       	std	Z+1, r25	; 0x01
     284:	80 83       	st	Z, r24
     286:	ed 2d       	mov	r30, r13
     288:	f0 e0       	ldi	r31, 0x00	; 0
     28a:	ee 0f       	add	r30, r30
     28c:	ff 1f       	adc	r31, r31
     28e:	81 e0       	ldi	r24, 0x01	; 1
     290:	90 e0       	ldi	r25, 0x00	; 0
     292:	8c 0f       	add	r24, r28
     294:	9d 1f       	adc	r25, r29
     296:	e8 0f       	add	r30, r24
     298:	f9 1f       	adc	r31, r25
     29a:	80 81       	ld	r24, Z
     29c:	91 81       	ldd	r25, Z+1	; 0x01
     29e:	89 2b       	or	r24, r25
     2a0:	f1 f6       	brne	.-68     	; 0x25e <pars_rx_strg+0x3a>
     2a2:	89 81       	ldd	r24, Y+1	; 0x01
     2a4:	9a 81       	ldd	r25, Y+2	; 0x02
     2a6:	0e 94 0c 15 	call	0x2a18	; 0x2a18 <atof>
     2aa:	f7 01       	movw	r30, r14
     2ac:	60 83       	st	Z, r22
     2ae:	71 83       	std	Z+1, r23	; 0x01
     2b0:	82 83       	std	Z+2, r24	; 0x02
     2b2:	93 83       	std	Z+3, r25	; 0x03
     2b4:	8b 81       	ldd	r24, Y+3	; 0x03
     2b6:	9c 81       	ldd	r25, Y+4	; 0x04
     2b8:	0e 94 0c 15 	call	0x2a18	; 0x2a18 <atof>
     2bc:	f7 01       	movw	r30, r14
     2be:	64 83       	std	Z+4, r22	; 0x04
     2c0:	75 83       	std	Z+5, r23	; 0x05
     2c2:	86 83       	std	Z+6, r24	; 0x06
     2c4:	97 83       	std	Z+7, r25	; 0x07
     2c6:	8d 81       	ldd	r24, Y+5	; 0x05
     2c8:	9e 81       	ldd	r25, Y+6	; 0x06
     2ca:	0e 94 0c 15 	call	0x2a18	; 0x2a18 <atof>
     2ce:	f7 01       	movw	r30, r14
     2d0:	60 87       	std	Z+8, r22	; 0x08
     2d2:	71 87       	std	Z+9, r23	; 0x09
     2d4:	82 87       	std	Z+10, r24	; 0x0a
     2d6:	93 87       	std	Z+11, r25	; 0x0b
     2d8:	28 96       	adiw	r28, 0x08	; 8
     2da:	0f b6       	in	r0, 0x3f	; 63
     2dc:	f8 94       	cli
     2de:	de bf       	out	0x3e, r29	; 62
     2e0:	0f be       	out	0x3f, r0	; 63
     2e2:	cd bf       	out	0x3d, r28	; 61
     2e4:	df 91       	pop	r29
     2e6:	cf 91       	pop	r28
     2e8:	1f 91       	pop	r17
     2ea:	0f 91       	pop	r16
     2ec:	ff 90       	pop	r15
     2ee:	ef 90       	pop	r14
     2f0:	df 90       	pop	r13
     2f2:	08 95       	ret

000002f4 <pwm_init>:
     2f4:	8f ef       	ldi	r24, 0xFF	; 255
     2f6:	84 b9       	out	0x04, r24	; 4
     2f8:	82 e0       	ldi	r24, 0x02	; 2
     2fa:	80 93 80 00 	sts	0x0080, r24	; 0x800080 <__TEXT_REGION_LENGTH__+0x7f8080>
     2fe:	9a e1       	ldi	r25, 0x1A	; 26
     300:	90 93 81 00 	sts	0x0081, r25	; 0x800081 <__TEXT_REGION_LENGTH__+0x7f8081>
     304:	80 93 6f 00 	sts	0x006F, r24	; 0x80006f <__TEXT_REGION_LENGTH__+0x7f806f>
     308:	8f e3       	ldi	r24, 0x3F	; 63
     30a:	9c e9       	ldi	r25, 0x9C	; 156
     30c:	90 93 87 00 	sts	0x0087, r25	; 0x800087 <__TEXT_REGION_LENGTH__+0x7f8087>
     310:	80 93 86 00 	sts	0x0086, r24	; 0x800086 <__TEXT_REGION_LENGTH__+0x7f8086>
     314:	08 95       	ret

00000316 <adc_init>:
     316:	87 e8       	ldi	r24, 0x87	; 135
     318:	80 93 7a 00 	sts	0x007A, r24	; 0x80007a <__TEXT_REGION_LENGTH__+0x7f807a>
     31c:	80 e4       	ldi	r24, 0x40	; 64
     31e:	80 93 7c 00 	sts	0x007C, r24	; 0x80007c <__TEXT_REGION_LENGTH__+0x7f807c>
     322:	08 95       	ret

00000324 <adc_read>:
     324:	87 70       	andi	r24, 0x07	; 7
     326:	ec e7       	ldi	r30, 0x7C	; 124
     328:	f0 e0       	ldi	r31, 0x00	; 0
     32a:	90 81       	ld	r25, Z
     32c:	98 7f       	andi	r25, 0xF8	; 248
     32e:	89 2b       	or	r24, r25
     330:	80 83       	st	Z, r24
     332:	ea e7       	ldi	r30, 0x7A	; 122
     334:	f0 e0       	ldi	r31, 0x00	; 0
     336:	80 81       	ld	r24, Z
     338:	80 64       	ori	r24, 0x40	; 64
     33a:	80 83       	st	Z, r24
     33c:	80 91 7a 00 	lds	r24, 0x007A	; 0x80007a <__TEXT_REGION_LENGTH__+0x7f807a>
     340:	86 fd       	sbrc	r24, 6
     342:	fc cf       	rjmp	.-8      	; 0x33c <adc_read+0x18>
     344:	80 91 78 00 	lds	r24, 0x0078	; 0x800078 <__TEXT_REGION_LENGTH__+0x7f8078>
     348:	90 91 79 00 	lds	r25, 0x0079	; 0x800079 <__TEXT_REGION_LENGTH__+0x7f8079>
     34c:	08 95       	ret

0000034e <ms_init>:
     34e:	82 e0       	ldi	r24, 0x02	; 2
     350:	84 bd       	out	0x24, r24	; 36
     352:	93 e0       	ldi	r25, 0x03	; 3
     354:	95 bd       	out	0x25, r25	; 37
     356:	99 ef       	ldi	r25, 0xF9	; 249
     358:	97 bd       	out	0x27, r25	; 39
     35a:	80 93 6e 00 	sts	0x006E, r24	; 0x80006e <__TEXT_REGION_LENGTH__+0x7f806e>
     35e:	08 95       	ret

00000360 <vec_betrag>:
     360:	8f 92       	push	r8
     362:	9f 92       	push	r9
     364:	af 92       	push	r10
     366:	bf 92       	push	r11
     368:	cf 92       	push	r12
     36a:	df 92       	push	r13
     36c:	ef 92       	push	r14
     36e:	ff 92       	push	r15
     370:	cf 93       	push	r28
     372:	df 93       	push	r29
     374:	ec 01       	movw	r28, r24
     376:	68 81       	ld	r22, Y
     378:	79 81       	ldd	r23, Y+1	; 0x01
     37a:	8a 81       	ldd	r24, Y+2	; 0x02
     37c:	9b 81       	ldd	r25, Y+3	; 0x03
     37e:	9b 01       	movw	r18, r22
     380:	ac 01       	movw	r20, r24
     382:	0e 94 bf 12 	call	0x257e	; 0x257e <__mulsf3>
     386:	6b 01       	movw	r12, r22
     388:	7c 01       	movw	r14, r24
     38a:	6c 81       	ldd	r22, Y+4	; 0x04
     38c:	7d 81       	ldd	r23, Y+5	; 0x05
     38e:	8e 81       	ldd	r24, Y+6	; 0x06
     390:	9f 81       	ldd	r25, Y+7	; 0x07
     392:	9b 01       	movw	r18, r22
     394:	ac 01       	movw	r20, r24
     396:	0e 94 bf 12 	call	0x257e	; 0x257e <__mulsf3>
     39a:	9b 01       	movw	r18, r22
     39c:	ac 01       	movw	r20, r24
     39e:	c7 01       	movw	r24, r14
     3a0:	b6 01       	movw	r22, r12
     3a2:	0e 94 6b 10 	call	0x20d6	; 0x20d6 <__addsf3>
     3a6:	6b 01       	movw	r12, r22
     3a8:	7c 01       	movw	r14, r24
     3aa:	68 85       	ldd	r22, Y+8	; 0x08
     3ac:	79 85       	ldd	r23, Y+9	; 0x09
     3ae:	8a 85       	ldd	r24, Y+10	; 0x0a
     3b0:	9b 85       	ldd	r25, Y+11	; 0x0b
     3b2:	9b 01       	movw	r18, r22
     3b4:	ac 01       	movw	r20, r24
     3b6:	0e 94 bf 12 	call	0x257e	; 0x257e <__mulsf3>
     3ba:	4b 01       	movw	r8, r22
     3bc:	5c 01       	movw	r10, r24
     3be:	a5 01       	movw	r20, r10
     3c0:	94 01       	movw	r18, r8
     3c2:	c7 01       	movw	r24, r14
     3c4:	b6 01       	movw	r22, r12
     3c6:	0e 94 6b 10 	call	0x20d6	; 0x20d6 <__addsf3>
     3ca:	0e 94 8a 13 	call	0x2714	; 0x2714 <sqrt>
     3ce:	df 91       	pop	r29
     3d0:	cf 91       	pop	r28
     3d2:	ff 90       	pop	r15
     3d4:	ef 90       	pop	r14
     3d6:	df 90       	pop	r13
     3d8:	cf 90       	pop	r12
     3da:	bf 90       	pop	r11
     3dc:	af 90       	pop	r10
     3de:	9f 90       	pop	r9
     3e0:	8f 90       	pop	r8
     3e2:	08 95       	ret

000003e4 <vec_skalarprod>:
     3e4:	cf 92       	push	r12
     3e6:	df 92       	push	r13
     3e8:	ef 92       	push	r14
     3ea:	ff 92       	push	r15
     3ec:	0f 93       	push	r16
     3ee:	1f 93       	push	r17
     3f0:	cf 93       	push	r28
     3f2:	df 93       	push	r29
     3f4:	8c 01       	movw	r16, r24
     3f6:	eb 01       	movw	r28, r22
     3f8:	fc 01       	movw	r30, r24
     3fa:	60 81       	ld	r22, Z
     3fc:	71 81       	ldd	r23, Z+1	; 0x01
     3fe:	82 81       	ldd	r24, Z+2	; 0x02
     400:	93 81       	ldd	r25, Z+3	; 0x03
     402:	28 81       	ld	r18, Y
     404:	39 81       	ldd	r19, Y+1	; 0x01
     406:	4a 81       	ldd	r20, Y+2	; 0x02
     408:	5b 81       	ldd	r21, Y+3	; 0x03
     40a:	0e 94 bf 12 	call	0x257e	; 0x257e <__mulsf3>
     40e:	6b 01       	movw	r12, r22
     410:	7c 01       	movw	r14, r24
     412:	f8 01       	movw	r30, r16
     414:	64 81       	ldd	r22, Z+4	; 0x04
     416:	75 81       	ldd	r23, Z+5	; 0x05
     418:	86 81       	ldd	r24, Z+6	; 0x06
     41a:	97 81       	ldd	r25, Z+7	; 0x07
     41c:	2c 81       	ldd	r18, Y+4	; 0x04
     41e:	3d 81       	ldd	r19, Y+5	; 0x05
     420:	4e 81       	ldd	r20, Y+6	; 0x06
     422:	5f 81       	ldd	r21, Y+7	; 0x07
     424:	0e 94 bf 12 	call	0x257e	; 0x257e <__mulsf3>
     428:	9b 01       	movw	r18, r22
     42a:	ac 01       	movw	r20, r24
     42c:	c7 01       	movw	r24, r14
     42e:	b6 01       	movw	r22, r12
     430:	0e 94 6b 10 	call	0x20d6	; 0x20d6 <__addsf3>
     434:	6b 01       	movw	r12, r22
     436:	7c 01       	movw	r14, r24
     438:	f8 01       	movw	r30, r16
     43a:	60 85       	ldd	r22, Z+8	; 0x08
     43c:	71 85       	ldd	r23, Z+9	; 0x09
     43e:	82 85       	ldd	r24, Z+10	; 0x0a
     440:	93 85       	ldd	r25, Z+11	; 0x0b
     442:	28 85       	ldd	r18, Y+8	; 0x08
     444:	39 85       	ldd	r19, Y+9	; 0x09
     446:	4a 85       	ldd	r20, Y+10	; 0x0a
     448:	5b 85       	ldd	r21, Y+11	; 0x0b
     44a:	0e 94 bf 12 	call	0x257e	; 0x257e <__mulsf3>
     44e:	9b 01       	movw	r18, r22
     450:	ac 01       	movw	r20, r24
     452:	c7 01       	movw	r24, r14
     454:	b6 01       	movw	r22, r12
     456:	0e 94 6b 10 	call	0x20d6	; 0x20d6 <__addsf3>
     45a:	df 91       	pop	r29
     45c:	cf 91       	pop	r28
     45e:	1f 91       	pop	r17
     460:	0f 91       	pop	r16
     462:	ff 90       	pop	r15
     464:	ef 90       	pop	r14
     466:	df 90       	pop	r13
     468:	cf 90       	pop	r12
     46a:	08 95       	ret

0000046c <dot_subtract>:
//Ortsvektoren zweier Punkte subtrahieren -> Vektor
vec dot_subtract(dot *p1, dot *p2)
{
     46c:	ef 92       	push	r14
     46e:	ff 92       	push	r15
     470:	0f 93       	push	r16
     472:	1f 93       	push	r17
     474:	cf 93       	push	r28
     476:	df 93       	push	r29
     478:	ec 01       	movw	r28, r24
     47a:	7b 01       	movw	r14, r22
     47c:	8a 01       	movw	r16, r20
	vec v = {p1->x - p2->x, p1->y - p2->y, p1->z - p2->z};
     47e:	fb 01       	movw	r30, r22
     480:	60 81       	ld	r22, Z
     482:	71 81       	ldd	r23, Z+1	; 0x01
     484:	82 81       	ldd	r24, Z+2	; 0x02
     486:	93 81       	ldd	r25, Z+3	; 0x03
     488:	fa 01       	movw	r30, r20
     48a:	20 81       	ld	r18, Z
     48c:	31 81       	ldd	r19, Z+1	; 0x01
     48e:	42 81       	ldd	r20, Z+2	; 0x02
     490:	53 81       	ldd	r21, Z+3	; 0x03
     492:	0e 94 6a 10 	call	0x20d4	; 0x20d4 <__subsf3>
     496:	68 83       	st	Y, r22
     498:	79 83       	std	Y+1, r23	; 0x01
     49a:	8a 83       	std	Y+2, r24	; 0x02
     49c:	9b 83       	std	Y+3, r25	; 0x03
     49e:	f7 01       	movw	r30, r14
     4a0:	64 81       	ldd	r22, Z+4	; 0x04
     4a2:	75 81       	ldd	r23, Z+5	; 0x05
     4a4:	86 81       	ldd	r24, Z+6	; 0x06
     4a6:	97 81       	ldd	r25, Z+7	; 0x07
     4a8:	f8 01       	movw	r30, r16
     4aa:	24 81       	ldd	r18, Z+4	; 0x04
     4ac:	35 81       	ldd	r19, Z+5	; 0x05
     4ae:	46 81       	ldd	r20, Z+6	; 0x06
     4b0:	57 81       	ldd	r21, Z+7	; 0x07
     4b2:	0e 94 6a 10 	call	0x20d4	; 0x20d4 <__subsf3>
     4b6:	6c 83       	std	Y+4, r22	; 0x04
     4b8:	7d 83       	std	Y+5, r23	; 0x05
     4ba:	8e 83       	std	Y+6, r24	; 0x06
     4bc:	9f 83       	std	Y+7, r25	; 0x07
     4be:	f7 01       	movw	r30, r14
     4c0:	60 85       	ldd	r22, Z+8	; 0x08
     4c2:	71 85       	ldd	r23, Z+9	; 0x09
     4c4:	82 85       	ldd	r24, Z+10	; 0x0a
     4c6:	93 85       	ldd	r25, Z+11	; 0x0b
     4c8:	f8 01       	movw	r30, r16
     4ca:	20 85       	ldd	r18, Z+8	; 0x08
     4cc:	31 85       	ldd	r19, Z+9	; 0x09
     4ce:	42 85       	ldd	r20, Z+10	; 0x0a
     4d0:	53 85       	ldd	r21, Z+11	; 0x0b
     4d2:	0e 94 6a 10 	call	0x20d4	; 0x20d4 <__subsf3>
     4d6:	68 87       	std	Y+8, r22	; 0x08
     4d8:	79 87       	std	Y+9, r23	; 0x09
     4da:	8a 87       	std	Y+10, r24	; 0x0a
     4dc:	9b 87       	std	Y+11, r25	; 0x0b
	return v;	
}
     4de:	ce 01       	movw	r24, r28
     4e0:	df 91       	pop	r29
     4e2:	cf 91       	pop	r28
     4e4:	1f 91       	pop	r17
     4e6:	0f 91       	pop	r16
     4e8:	ff 90       	pop	r15
     4ea:	ef 90       	pop	r14
     4ec:	08 95       	ret

000004ee <matr_x_matr>:
//Matrizenrechnungen
//4x4 Matrizen multiplizieren
//Übergeben werden Matrix 1 und 2
//Das Ergebnis der Multiplikation wird in Matrix 3 geschrieben
void matr_x_matr(matr m_src1, matr m_src2, matr m_dst)
{
     4ee:	2f 92       	push	r2
     4f0:	3f 92       	push	r3
     4f2:	6f 92       	push	r6
     4f4:	7f 92       	push	r7
     4f6:	8f 92       	push	r8
     4f8:	9f 92       	push	r9
     4fa:	af 92       	push	r10
     4fc:	bf 92       	push	r11
     4fe:	cf 92       	push	r12
     500:	df 92       	push	r13
     502:	ef 92       	push	r14
     504:	ff 92       	push	r15
     506:	0f 93       	push	r16
     508:	1f 93       	push	r17
     50a:	cf 93       	push	r28
     50c:	df 93       	push	r29
     50e:	00 d0       	rcall	.+0      	; 0x510 <matr_x_matr+0x22>
     510:	00 d0       	rcall	.+0      	; 0x512 <matr_x_matr+0x24>
     512:	00 d0       	rcall	.+0      	; 0x514 <matr_x_matr+0x26>
     514:	cd b7       	in	r28, 0x3d	; 61
     516:	de b7       	in	r29, 0x3e	; 62
     518:	1c 01       	movw	r2, r24
     51a:	4b 01       	movw	r8, r22
     51c:	5a 01       	movw	r10, r20
	uint8_t i, j;
    for(i = 0; i < 4; ++i)
     51e:	c1 2c       	mov	r12, r1
     520:	7a c0       	rjmp	.+244    	; 0x616 <matr_x_matr+0x128>
    {
	    for(j = 0; j < 4; ++j)
	    {
		    m_dst[i][j] =
     522:	e0 e1       	ldi	r30, 0x10	; 16
     524:	ce 9e       	mul	r12, r30
     526:	c0 01       	movw	r24, r0
     528:	11 24       	eor	r1, r1
     52a:	3c 01       	movw	r6, r24
     52c:	6a 0c       	add	r6, r10
     52e:	7b 1c       	adc	r7, r11
		    m_src1[i][0] * m_src2[0][j] +
     530:	82 0d       	add	r24, r2
     532:	93 1d       	adc	r25, r3
     534:	9e 83       	std	Y+6, r25	; 0x06
     536:	8d 83       	std	Y+5, r24	; 0x05
     538:	fc 01       	movw	r30, r24
     53a:	60 81       	ld	r22, Z
     53c:	71 81       	ldd	r23, Z+1	; 0x01
     53e:	82 81       	ldd	r24, Z+2	; 0x02
     540:	93 81       	ldd	r25, Z+3	; 0x03
     542:	0d 2d       	mov	r16, r13
     544:	10 e0       	ldi	r17, 0x00	; 0
     546:	00 0f       	add	r16, r16
     548:	11 1f       	adc	r17, r17
     54a:	00 0f       	add	r16, r16
     54c:	11 1f       	adc	r17, r17
     54e:	74 01       	movw	r14, r8
     550:	e0 0e       	add	r14, r16
     552:	f1 1e       	adc	r15, r17
     554:	f7 01       	movw	r30, r14
     556:	20 81       	ld	r18, Z
     558:	31 81       	ldd	r19, Z+1	; 0x01
     55a:	42 81       	ldd	r20, Z+2	; 0x02
     55c:	53 81       	ldd	r21, Z+3	; 0x03
     55e:	0e 94 bf 12 	call	0x257e	; 0x257e <__mulsf3>
     562:	69 83       	std	Y+1, r22	; 0x01
     564:	7a 83       	std	Y+2, r23	; 0x02
     566:	8b 83       	std	Y+3, r24	; 0x03
     568:	9c 83       	std	Y+4, r25	; 0x04
		    m_src1[i][1] * m_src2[1][j] +
     56a:	ed 81       	ldd	r30, Y+5	; 0x05
     56c:	fe 81       	ldd	r31, Y+6	; 0x06
     56e:	64 81       	ldd	r22, Z+4	; 0x04
     570:	75 81       	ldd	r23, Z+5	; 0x05
     572:	86 81       	ldd	r24, Z+6	; 0x06
     574:	97 81       	ldd	r25, Z+7	; 0x07
     576:	f7 01       	movw	r30, r14
     578:	20 89       	ldd	r18, Z+16	; 0x10
     57a:	31 89       	ldd	r19, Z+17	; 0x11
     57c:	42 89       	ldd	r20, Z+18	; 0x12
     57e:	53 89       	ldd	r21, Z+19	; 0x13
     580:	0e 94 bf 12 	call	0x257e	; 0x257e <__mulsf3>
     584:	9b 01       	movw	r18, r22
     586:	ac 01       	movw	r20, r24
    for(i = 0; i < 4; ++i)
    {
	    for(j = 0; j < 4; ++j)
	    {
		    m_dst[i][j] =
		    m_src1[i][0] * m_src2[0][j] +
     588:	69 81       	ldd	r22, Y+1	; 0x01
     58a:	7a 81       	ldd	r23, Y+2	; 0x02
     58c:	8b 81       	ldd	r24, Y+3	; 0x03
     58e:	9c 81       	ldd	r25, Y+4	; 0x04
     590:	0e 94 6b 10 	call	0x20d6	; 0x20d6 <__addsf3>
     594:	69 83       	std	Y+1, r22	; 0x01
     596:	7a 83       	std	Y+2, r23	; 0x02
     598:	8b 83       	std	Y+3, r24	; 0x03
     59a:	9c 83       	std	Y+4, r25	; 0x04
		    m_src1[i][1] * m_src2[1][j] +
		    m_src1[i][2] * m_src2[2][j] +
     59c:	ed 81       	ldd	r30, Y+5	; 0x05
     59e:	fe 81       	ldd	r31, Y+6	; 0x06
     5a0:	60 85       	ldd	r22, Z+8	; 0x08
     5a2:	71 85       	ldd	r23, Z+9	; 0x09
     5a4:	82 85       	ldd	r24, Z+10	; 0x0a
     5a6:	93 85       	ldd	r25, Z+11	; 0x0b
     5a8:	f7 01       	movw	r30, r14
     5aa:	20 a1       	ldd	r18, Z+32	; 0x20
     5ac:	31 a1       	ldd	r19, Z+33	; 0x21
     5ae:	42 a1       	ldd	r20, Z+34	; 0x22
     5b0:	53 a1       	ldd	r21, Z+35	; 0x23
     5b2:	0e 94 bf 12 	call	0x257e	; 0x257e <__mulsf3>
     5b6:	9b 01       	movw	r18, r22
     5b8:	ac 01       	movw	r20, r24
    {
	    for(j = 0; j < 4; ++j)
	    {
		    m_dst[i][j] =
		    m_src1[i][0] * m_src2[0][j] +
		    m_src1[i][1] * m_src2[1][j] +
     5ba:	69 81       	ldd	r22, Y+1	; 0x01
     5bc:	7a 81       	ldd	r23, Y+2	; 0x02
     5be:	8b 81       	ldd	r24, Y+3	; 0x03
     5c0:	9c 81       	ldd	r25, Y+4	; 0x04
     5c2:	0e 94 6b 10 	call	0x20d6	; 0x20d6 <__addsf3>
     5c6:	69 83       	std	Y+1, r22	; 0x01
     5c8:	7a 83       	std	Y+2, r23	; 0x02
     5ca:	8b 83       	std	Y+3, r24	; 0x03
     5cc:	9c 83       	std	Y+4, r25	; 0x04
		    m_src1[i][2] * m_src2[2][j] +
		    m_src1[i][3] * m_src2[3][j];
     5ce:	ed 81       	ldd	r30, Y+5	; 0x05
     5d0:	fe 81       	ldd	r31, Y+6	; 0x06
     5d2:	64 85       	ldd	r22, Z+12	; 0x0c
     5d4:	75 85       	ldd	r23, Z+13	; 0x0d
     5d6:	86 85       	ldd	r24, Z+14	; 0x0e
     5d8:	97 85       	ldd	r25, Z+15	; 0x0f
     5da:	f7 01       	movw	r30, r14
     5dc:	20 a9       	ldd	r18, Z+48	; 0x30
     5de:	31 a9       	ldd	r19, Z+49	; 0x31
     5e0:	42 a9       	ldd	r20, Z+50	; 0x32
     5e2:	53 a9       	ldd	r21, Z+51	; 0x33
     5e4:	0e 94 bf 12 	call	0x257e	; 0x257e <__mulsf3>
     5e8:	9b 01       	movw	r18, r22
     5ea:	ac 01       	movw	r20, r24
	    for(j = 0; j < 4; ++j)
	    {
		    m_dst[i][j] =
		    m_src1[i][0] * m_src2[0][j] +
		    m_src1[i][1] * m_src2[1][j] +
		    m_src1[i][2] * m_src2[2][j] +
     5ec:	69 81       	ldd	r22, Y+1	; 0x01
     5ee:	7a 81       	ldd	r23, Y+2	; 0x02
     5f0:	8b 81       	ldd	r24, Y+3	; 0x03
     5f2:	9c 81       	ldd	r25, Y+4	; 0x04
     5f4:	0e 94 6b 10 	call	0x20d6	; 0x20d6 <__addsf3>
	uint8_t i, j;
    for(i = 0; i < 4; ++i)
    {
	    for(j = 0; j < 4; ++j)
	    {
		    m_dst[i][j] =
     5f8:	f3 01       	movw	r30, r6
     5fa:	e0 0f       	add	r30, r16
     5fc:	f1 1f       	adc	r31, r17
     5fe:	60 83       	st	Z, r22
     600:	71 83       	std	Z+1, r23	; 0x01
     602:	82 83       	std	Z+2, r24	; 0x02
     604:	93 83       	std	Z+3, r25	; 0x03
void matr_x_matr(matr m_src1, matr m_src2, matr m_dst)
{
	uint8_t i, j;
    for(i = 0; i < 4; ++i)
    {
	    for(j = 0; j < 4; ++j)
     606:	d3 94       	inc	r13
     608:	01 c0       	rjmp	.+2      	; 0x60c <matr_x_matr+0x11e>
     60a:	d1 2c       	mov	r13, r1
     60c:	f3 e0       	ldi	r31, 0x03	; 3
     60e:	fd 15       	cp	r31, r13
     610:	08 f0       	brcs	.+2      	; 0x614 <matr_x_matr+0x126>
     612:	87 cf       	rjmp	.-242    	; 0x522 <matr_x_matr+0x34>
//Übergeben werden Matrix 1 und 2
//Das Ergebnis der Multiplikation wird in Matrix 3 geschrieben
void matr_x_matr(matr m_src1, matr m_src2, matr m_dst)
{
	uint8_t i, j;
    for(i = 0; i < 4; ++i)
     614:	c3 94       	inc	r12
     616:	23 e0       	ldi	r18, 0x03	; 3
     618:	2c 15       	cp	r18, r12
     61a:	b8 f7       	brcc	.-18     	; 0x60a <matr_x_matr+0x11c>
		    m_src1[i][1] * m_src2[1][j] +
		    m_src1[i][2] * m_src2[2][j] +
		    m_src1[i][3] * m_src2[3][j];
	    }
    }	
}
     61c:	26 96       	adiw	r28, 0x06	; 6
     61e:	0f b6       	in	r0, 0x3f	; 63
     620:	f8 94       	cli
     622:	de bf       	out	0x3e, r29	; 62
     624:	0f be       	out	0x3f, r0	; 63
     626:	cd bf       	out	0x3d, r28	; 61
     628:	df 91       	pop	r29
     62a:	cf 91       	pop	r28
     62c:	1f 91       	pop	r17
     62e:	0f 91       	pop	r16
     630:	ff 90       	pop	r15
     632:	ef 90       	pop	r14
     634:	df 90       	pop	r13
     636:	cf 90       	pop	r12
     638:	bf 90       	pop	r11
     63a:	af 90       	pop	r10
     63c:	9f 90       	pop	r9
     63e:	8f 90       	pop	r8
     640:	7f 90       	pop	r7
     642:	6f 90       	pop	r6
     644:	3f 90       	pop	r3
     646:	2f 90       	pop	r2
     648:	08 95       	ret

0000064a <matr_x_dot>:
//p_dst = Ergebnis der Multiplikation
//Punkte werden der Einfachheit halber nicht als homogene Koordinaten dargestellt (= 4. Variable h)
//h ist in aller Regel = 1, ausser die Matrix ist eine Projektionsmatrix (für perspektivische Darstellung)
//Dann müssen die x,y,z-Koordinaten durch h geteilt werden
void matr_x_dot(matr m, dot *p_src, dot *p_dst)
{
     64a:	8f 92       	push	r8
     64c:	9f 92       	push	r9
     64e:	af 92       	push	r10
     650:	bf 92       	push	r11
     652:	ef 92       	push	r14
     654:	ff 92       	push	r15
     656:	0f 93       	push	r16
     658:	1f 93       	push	r17
     65a:	cf 93       	push	r28
     65c:	df 93       	push	r29
     65e:	ec 01       	movw	r28, r24
     660:	8b 01       	movw	r16, r22
     662:	7a 01       	movw	r14, r20
    //COLUMN-MAJOR Variante
    p_dst->x = m[0][0] * p_src->x + m[0][1] * p_src->y + m[0][2] * p_src->z + m[0][3];
     664:	68 81       	ld	r22, Y
     666:	79 81       	ldd	r23, Y+1	; 0x01
     668:	8a 81       	ldd	r24, Y+2	; 0x02
     66a:	9b 81       	ldd	r25, Y+3	; 0x03
     66c:	f8 01       	movw	r30, r16
     66e:	20 81       	ld	r18, Z
     670:	31 81       	ldd	r19, Z+1	; 0x01
     672:	42 81       	ldd	r20, Z+2	; 0x02
     674:	53 81       	ldd	r21, Z+3	; 0x03
     676:	0e 94 bf 12 	call	0x257e	; 0x257e <__mulsf3>
     67a:	4b 01       	movw	r8, r22
     67c:	5c 01       	movw	r10, r24
     67e:	6c 81       	ldd	r22, Y+4	; 0x04
     680:	7d 81       	ldd	r23, Y+5	; 0x05
     682:	8e 81       	ldd	r24, Y+6	; 0x06
     684:	9f 81       	ldd	r25, Y+7	; 0x07
     686:	f8 01       	movw	r30, r16
     688:	24 81       	ldd	r18, Z+4	; 0x04
     68a:	35 81       	ldd	r19, Z+5	; 0x05
     68c:	46 81       	ldd	r20, Z+6	; 0x06
     68e:	57 81       	ldd	r21, Z+7	; 0x07
     690:	0e 94 bf 12 	call	0x257e	; 0x257e <__mulsf3>
     694:	9b 01       	movw	r18, r22
     696:	ac 01       	movw	r20, r24
     698:	c5 01       	movw	r24, r10
     69a:	b4 01       	movw	r22, r8
     69c:	0e 94 6b 10 	call	0x20d6	; 0x20d6 <__addsf3>
     6a0:	4b 01       	movw	r8, r22
     6a2:	5c 01       	movw	r10, r24
     6a4:	68 85       	ldd	r22, Y+8	; 0x08
     6a6:	79 85       	ldd	r23, Y+9	; 0x09
     6a8:	8a 85       	ldd	r24, Y+10	; 0x0a
     6aa:	9b 85       	ldd	r25, Y+11	; 0x0b
     6ac:	f8 01       	movw	r30, r16
     6ae:	20 85       	ldd	r18, Z+8	; 0x08
     6b0:	31 85       	ldd	r19, Z+9	; 0x09
     6b2:	42 85       	ldd	r20, Z+10	; 0x0a
     6b4:	53 85       	ldd	r21, Z+11	; 0x0b
     6b6:	0e 94 bf 12 	call	0x257e	; 0x257e <__mulsf3>
     6ba:	9b 01       	movw	r18, r22
     6bc:	ac 01       	movw	r20, r24
     6be:	c5 01       	movw	r24, r10
     6c0:	b4 01       	movw	r22, r8
     6c2:	0e 94 6b 10 	call	0x20d6	; 0x20d6 <__addsf3>
     6c6:	2c 85       	ldd	r18, Y+12	; 0x0c
     6c8:	3d 85       	ldd	r19, Y+13	; 0x0d
     6ca:	4e 85       	ldd	r20, Y+14	; 0x0e
     6cc:	5f 85       	ldd	r21, Y+15	; 0x0f
     6ce:	0e 94 6b 10 	call	0x20d6	; 0x20d6 <__addsf3>
     6d2:	f7 01       	movw	r30, r14
     6d4:	60 83       	st	Z, r22
     6d6:	71 83       	std	Z+1, r23	; 0x01
     6d8:	82 83       	std	Z+2, r24	; 0x02
     6da:	93 83       	std	Z+3, r25	; 0x03
    p_dst->y = m[1][0] * p_src->x + m[1][1] * p_src->y + m[1][2] * p_src->z + m[1][3];
     6dc:	68 89       	ldd	r22, Y+16	; 0x10
     6de:	79 89       	ldd	r23, Y+17	; 0x11
     6e0:	8a 89       	ldd	r24, Y+18	; 0x12
     6e2:	9b 89       	ldd	r25, Y+19	; 0x13
     6e4:	f8 01       	movw	r30, r16
     6e6:	20 81       	ld	r18, Z
     6e8:	31 81       	ldd	r19, Z+1	; 0x01
     6ea:	42 81       	ldd	r20, Z+2	; 0x02
     6ec:	53 81       	ldd	r21, Z+3	; 0x03
     6ee:	0e 94 bf 12 	call	0x257e	; 0x257e <__mulsf3>
     6f2:	4b 01       	movw	r8, r22
     6f4:	5c 01       	movw	r10, r24
     6f6:	6c 89       	ldd	r22, Y+20	; 0x14
     6f8:	7d 89       	ldd	r23, Y+21	; 0x15
     6fa:	8e 89       	ldd	r24, Y+22	; 0x16
     6fc:	9f 89       	ldd	r25, Y+23	; 0x17
     6fe:	f8 01       	movw	r30, r16
     700:	24 81       	ldd	r18, Z+4	; 0x04
     702:	35 81       	ldd	r19, Z+5	; 0x05
     704:	46 81       	ldd	r20, Z+6	; 0x06
     706:	57 81       	ldd	r21, Z+7	; 0x07
     708:	0e 94 bf 12 	call	0x257e	; 0x257e <__mulsf3>
     70c:	9b 01       	movw	r18, r22
     70e:	ac 01       	movw	r20, r24
     710:	c5 01       	movw	r24, r10
     712:	b4 01       	movw	r22, r8
     714:	0e 94 6b 10 	call	0x20d6	; 0x20d6 <__addsf3>
     718:	4b 01       	movw	r8, r22
     71a:	5c 01       	movw	r10, r24
     71c:	68 8d       	ldd	r22, Y+24	; 0x18
     71e:	79 8d       	ldd	r23, Y+25	; 0x19
     720:	8a 8d       	ldd	r24, Y+26	; 0x1a
     722:	9b 8d       	ldd	r25, Y+27	; 0x1b
     724:	f8 01       	movw	r30, r16
     726:	20 85       	ldd	r18, Z+8	; 0x08
     728:	31 85       	ldd	r19, Z+9	; 0x09
     72a:	42 85       	ldd	r20, Z+10	; 0x0a
     72c:	53 85       	ldd	r21, Z+11	; 0x0b
     72e:	0e 94 bf 12 	call	0x257e	; 0x257e <__mulsf3>
     732:	9b 01       	movw	r18, r22
     734:	ac 01       	movw	r20, r24
     736:	c5 01       	movw	r24, r10
     738:	b4 01       	movw	r22, r8
     73a:	0e 94 6b 10 	call	0x20d6	; 0x20d6 <__addsf3>
     73e:	2c 8d       	ldd	r18, Y+28	; 0x1c
     740:	3d 8d       	ldd	r19, Y+29	; 0x1d
     742:	4e 8d       	ldd	r20, Y+30	; 0x1e
     744:	5f 8d       	ldd	r21, Y+31	; 0x1f
     746:	0e 94 6b 10 	call	0x20d6	; 0x20d6 <__addsf3>
     74a:	f7 01       	movw	r30, r14
     74c:	64 83       	std	Z+4, r22	; 0x04
     74e:	75 83       	std	Z+5, r23	; 0x05
     750:	86 83       	std	Z+6, r24	; 0x06
     752:	97 83       	std	Z+7, r25	; 0x07
    p_dst->z = m[2][0] * p_src->x + m[2][1] * p_src->y + m[2][2] * p_src->z + m[2][3];
     754:	68 a1       	ldd	r22, Y+32	; 0x20
     756:	79 a1       	ldd	r23, Y+33	; 0x21
     758:	8a a1       	ldd	r24, Y+34	; 0x22
     75a:	9b a1       	ldd	r25, Y+35	; 0x23
     75c:	f8 01       	movw	r30, r16
     75e:	20 81       	ld	r18, Z
     760:	31 81       	ldd	r19, Z+1	; 0x01
     762:	42 81       	ldd	r20, Z+2	; 0x02
     764:	53 81       	ldd	r21, Z+3	; 0x03
     766:	0e 94 bf 12 	call	0x257e	; 0x257e <__mulsf3>
     76a:	4b 01       	movw	r8, r22
     76c:	5c 01       	movw	r10, r24
     76e:	6c a1       	ldd	r22, Y+36	; 0x24
     770:	7d a1       	ldd	r23, Y+37	; 0x25
     772:	8e a1       	ldd	r24, Y+38	; 0x26
     774:	9f a1       	ldd	r25, Y+39	; 0x27
     776:	f8 01       	movw	r30, r16
     778:	24 81       	ldd	r18, Z+4	; 0x04
     77a:	35 81       	ldd	r19, Z+5	; 0x05
     77c:	46 81       	ldd	r20, Z+6	; 0x06
     77e:	57 81       	ldd	r21, Z+7	; 0x07
     780:	0e 94 bf 12 	call	0x257e	; 0x257e <__mulsf3>
     784:	9b 01       	movw	r18, r22
     786:	ac 01       	movw	r20, r24
     788:	c5 01       	movw	r24, r10
     78a:	b4 01       	movw	r22, r8
     78c:	0e 94 6b 10 	call	0x20d6	; 0x20d6 <__addsf3>
     790:	4b 01       	movw	r8, r22
     792:	5c 01       	movw	r10, r24
     794:	68 a5       	ldd	r22, Y+40	; 0x28
     796:	79 a5       	ldd	r23, Y+41	; 0x29
     798:	8a a5       	ldd	r24, Y+42	; 0x2a
     79a:	9b a5       	ldd	r25, Y+43	; 0x2b
     79c:	f8 01       	movw	r30, r16
     79e:	20 85       	ldd	r18, Z+8	; 0x08
     7a0:	31 85       	ldd	r19, Z+9	; 0x09
     7a2:	42 85       	ldd	r20, Z+10	; 0x0a
     7a4:	53 85       	ldd	r21, Z+11	; 0x0b
     7a6:	0e 94 bf 12 	call	0x257e	; 0x257e <__mulsf3>
     7aa:	9b 01       	movw	r18, r22
     7ac:	ac 01       	movw	r20, r24
     7ae:	c5 01       	movw	r24, r10
     7b0:	b4 01       	movw	r22, r8
     7b2:	0e 94 6b 10 	call	0x20d6	; 0x20d6 <__addsf3>
     7b6:	2c a5       	ldd	r18, Y+44	; 0x2c
     7b8:	3d a5       	ldd	r19, Y+45	; 0x2d
     7ba:	4e a5       	ldd	r20, Y+46	; 0x2e
     7bc:	5f a5       	ldd	r21, Y+47	; 0x2f
     7be:	0e 94 6b 10 	call	0x20d6	; 0x20d6 <__addsf3>
     7c2:	f7 01       	movw	r30, r14
     7c4:	60 87       	std	Z+8, r22	; 0x08
     7c6:	71 87       	std	Z+9, r23	; 0x09
     7c8:	82 87       	std	Z+10, r24	; 0x0a
     7ca:	93 87       	std	Z+11, r25	; 0x0b
}
     7cc:	df 91       	pop	r29
     7ce:	cf 91       	pop	r28
     7d0:	1f 91       	pop	r17
     7d2:	0f 91       	pop	r16
     7d4:	ff 90       	pop	r15
     7d6:	ef 90       	pop	r14
     7d8:	bf 90       	pop	r11
     7da:	af 90       	pop	r10
     7dc:	9f 90       	pop	r9
     7de:	8f 90       	pop	r8
     7e0:	08 95       	ret

000007e2 <inv_kinematic>:
//Funktion für die inverse Kinematik
//Übergeben wird der gewünschte TCP
//Die berechneten Gelenkwinkel werden im globalen Struct Ang gespeichert
//Können die Winkel nicht berechnet werden, gibt die Funktion 0 zurück, ansonsten 1
uint8_t inv_kinematic(dot *TCP, ang *Ang)
{
     7e2:	4f 92       	push	r4
     7e4:	5f 92       	push	r5
     7e6:	6f 92       	push	r6
     7e8:	7f 92       	push	r7
     7ea:	8f 92       	push	r8
     7ec:	9f 92       	push	r9
     7ee:	af 92       	push	r10
     7f0:	bf 92       	push	r11
     7f2:	cf 92       	push	r12
     7f4:	df 92       	push	r13
     7f6:	ef 92       	push	r14
     7f8:	ff 92       	push	r15
     7fa:	0f 93       	push	r16
     7fc:	1f 93       	push	r17
     7fe:	cf 93       	push	r28
     800:	df 93       	push	r29
     802:	cd b7       	in	r28, 0x3d	; 61
     804:	de b7       	in	r29, 0x3e	; 62
     806:	c8 54       	subi	r28, 0x48	; 72
     808:	d1 09       	sbc	r29, r1
     80a:	0f b6       	in	r0, 0x3f	; 63
     80c:	f8 94       	cli
     80e:	de bf       	out	0x3e, r29	; 62
     810:	0f be       	out	0x3f, r0	; 63
     812:	cd bf       	out	0x3d, r28	; 61
     814:	7c 01       	movw	r14, r24
     816:	8b 01       	movw	r16, r22
    //x und y des TCP dürfen nicht beide 0 sein
    if(TCP->x == 0 && TCP->y == 0)	
     818:	dc 01       	movw	r26, r24
     81a:	8d 90       	ld	r8, X+
     81c:	9d 90       	ld	r9, X+
     81e:	ad 90       	ld	r10, X+
     820:	bc 90       	ld	r11, X
     822:	20 e0       	ldi	r18, 0x00	; 0
     824:	30 e0       	ldi	r19, 0x00	; 0
     826:	a9 01       	movw	r20, r18
     828:	c5 01       	movw	r24, r10
     82a:	b4 01       	movw	r22, r8
     82c:	0e 94 d7 10 	call	0x21ae	; 0x21ae <__cmpsf2>
     830:	81 11       	cpse	r24, r1
     832:	0d c0       	rjmp	.+26     	; 0x84e <__DATA_REGION_LENGTH__+0x4e>
     834:	f7 01       	movw	r30, r14
     836:	64 81       	ldd	r22, Z+4	; 0x04
     838:	75 81       	ldd	r23, Z+5	; 0x05
     83a:	86 81       	ldd	r24, Z+6	; 0x06
     83c:	97 81       	ldd	r25, Z+7	; 0x07
     83e:	20 e0       	ldi	r18, 0x00	; 0
     840:	30 e0       	ldi	r19, 0x00	; 0
     842:	a9 01       	movw	r20, r18
     844:	0e 94 d7 10 	call	0x21ae	; 0x21ae <__cmpsf2>
     848:	88 23       	and	r24, r24
     84a:	09 f4       	brne	.+2      	; 0x84e <__DATA_REGION_LENGTH__+0x4e>
     84c:	2a c2       	rjmp	.+1108   	; 0xca2 <__stack+0x3a3>
        //////////////////////////
        // Berechnung von Phi_1 //
        //////////////////////////

        //Vektor mit den xy-Koordinaten des TCP erzeugen (vom Ursprung aus)
        vec V_TCPxy = {TCP->x, TCP->y, 0};
     84e:	8d a2       	std	Y+37, r8	; 0x25
     850:	9e a2       	std	Y+38, r9	; 0x26
     852:	af a2       	std	Y+39, r10	; 0x27
     854:	b8 a6       	std	Y+40, r11	; 0x28
     856:	f7 01       	movw	r30, r14
     858:	84 81       	ldd	r24, Z+4	; 0x04
     85a:	95 81       	ldd	r25, Z+5	; 0x05
     85c:	a6 81       	ldd	r26, Z+6	; 0x06
     85e:	b7 81       	ldd	r27, Z+7	; 0x07
     860:	89 a7       	std	Y+41, r24	; 0x29
     862:	9a a7       	std	Y+42, r25	; 0x2a
     864:	ab a7       	std	Y+43, r26	; 0x2b
     866:	bc a7       	std	Y+44, r27	; 0x2c
     868:	1d a6       	std	Y+45, r1	; 0x2d
     86a:	1e a6       	std	Y+46, r1	; 0x2e
     86c:	1f a6       	std	Y+47, r1	; 0x2f
     86e:	18 aa       	std	Y+48, r1	; 0x30
        //Betrag des Vektors berechnen (Hypotenuse)
        double L_TCPxy = vec_betrag(&V_TCPxy);
     870:	ce 01       	movw	r24, r28
     872:	85 96       	adiw	r24, 0x25	; 37
     874:	0e 94 b0 01 	call	0x360	; 0x360 <vec_betrag>
     878:	9b 01       	movw	r18, r22
     87a:	ac 01       	movw	r20, r24
        //Phi1 berechnen (Kosinus)
        Ang->Phi_1 = acos(TCP->x/L_TCPxy);
     87c:	d7 01       	movw	r26, r14
     87e:	6d 91       	ld	r22, X+
     880:	7d 91       	ld	r23, X+
     882:	8d 91       	ld	r24, X+
     884:	9c 91       	ld	r25, X
     886:	0e 94 e1 10 	call	0x21c2	; 0x21c2 <__divsf3>
     88a:	0e 94 59 10 	call	0x20b2	; 0x20b2 <acos>
     88e:	4b 01       	movw	r8, r22
     890:	5c 01       	movw	r10, r24
     892:	f8 01       	movw	r30, r16
     894:	60 83       	st	Z, r22
     896:	71 83       	std	Z+1, r23	; 0x01
     898:	82 83       	std	Z+2, r24	; 0x02
     89a:	93 83       	std	Z+3, r25	; 0x03
        //Vorzeichen des Winkels bestimmen
        if(TCP->y < 0)
     89c:	d7 01       	movw	r26, r14
     89e:	14 96       	adiw	r26, 0x04	; 4
     8a0:	6d 91       	ld	r22, X+
     8a2:	7d 91       	ld	r23, X+
     8a4:	8d 91       	ld	r24, X+
     8a6:	9c 91       	ld	r25, X
     8a8:	17 97       	sbiw	r26, 0x07	; 7
     8aa:	20 e0       	ldi	r18, 0x00	; 0
     8ac:	30 e0       	ldi	r19, 0x00	; 0
     8ae:	a9 01       	movw	r20, r18
     8b0:	0e 94 d7 10 	call	0x21ae	; 0x21ae <__cmpsf2>
     8b4:	88 23       	and	r24, r24
     8b6:	4c f4       	brge	.+18     	; 0x8ca <__DATA_REGION_LENGTH__+0xca>
        {
	        Ang->Phi_1 *= -1.0;
     8b8:	b7 fa       	bst	r11, 7
     8ba:	b0 94       	com	r11
     8bc:	b7 f8       	bld	r11, 7
     8be:	b0 94       	com	r11
     8c0:	f8 01       	movw	r30, r16
     8c2:	80 82       	st	Z, r8
     8c4:	91 82       	std	Z+1, r9	; 0x01
     8c6:	a2 82       	std	Z+2, r10	; 0x02
     8c8:	b3 82       	std	Z+3, r11	; 0x03
        // Berechnung von Phi_2 //
        //////////////////////////

        //Koordinaten des Punktes G2
        //Unbeweglich, abhängig von L1
        dot P_G2 = {0, 0, L_1};
     8ca:	19 8e       	std	Y+25, r1	; 0x19
     8cc:	1a 8e       	std	Y+26, r1	; 0x1a
     8ce:	1b 8e       	std	Y+27, r1	; 0x1b
     8d0:	1c 8e       	std	Y+28, r1	; 0x1c
     8d2:	1d 8e       	std	Y+29, r1	; 0x1d
     8d4:	1e 8e       	std	Y+30, r1	; 0x1e
     8d6:	1f 8e       	std	Y+31, r1	; 0x1f
     8d8:	18 a2       	std	Y+32, r1	; 0x20
     8da:	80 91 40 01 	lds	r24, 0x0140	; 0x800140 <L_1>
     8de:	90 91 41 01 	lds	r25, 0x0141	; 0x800141 <L_1+0x1>
     8e2:	a0 91 42 01 	lds	r26, 0x0142	; 0x800142 <L_1+0x2>
     8e6:	b0 91 43 01 	lds	r27, 0x0143	; 0x800143 <L_1+0x3>
     8ea:	89 a3       	std	Y+33, r24	; 0x21
     8ec:	9a a3       	std	Y+34, r25	; 0x22
     8ee:	ab a3       	std	Y+35, r26	; 0x23
     8f0:	bc a3       	std	Y+36, r27	; 0x24
        //Vektor G2_TCP berechnen
        vec V_G2_TCP = dot_subtract(TCP, &P_G2);
     8f2:	ae 01       	movw	r20, r28
     8f4:	47 5e       	subi	r20, 0xE7	; 231
     8f6:	5f 4f       	sbci	r21, 0xFF	; 255
     8f8:	b7 01       	movw	r22, r14
     8fa:	ce 01       	movw	r24, r28
     8fc:	0d 96       	adiw	r24, 0x0d	; 13
     8fe:	0e 94 36 02 	call	0x46c	; 0x46c <dot_subtract>
        //Betrag von V_G2_TCP bestimmen
        double L_G2_TCP = vec_betrag(&V_G2_TCP);
     902:	ce 01       	movw	r24, r28
     904:	0d 96       	adiw	r24, 0x0d	; 13
     906:	0e 94 b0 01 	call	0x360	; 0x360 <vec_betrag>
     90a:	6b 01       	movw	r12, r22
     90c:	7c 01       	movw	r14, r24
        //Wenn L_G2_TCP < L_2+L_3 ist, dann kann das Ziel nicht erreicht werden
        if(L_G2_TCP > (L_2 + L_3))
     90e:	80 90 3c 01 	lds	r8, 0x013C	; 0x80013c <L_2>
     912:	90 90 3d 01 	lds	r9, 0x013D	; 0x80013d <L_2+0x1>
     916:	a0 90 3e 01 	lds	r10, 0x013E	; 0x80013e <L_2+0x2>
     91a:	b0 90 3f 01 	lds	r11, 0x013F	; 0x80013f <L_2+0x3>
     91e:	80 91 38 01 	lds	r24, 0x0138	; 0x800138 <L_3>
     922:	90 91 39 01 	lds	r25, 0x0139	; 0x800139 <L_3+0x1>
     926:	a0 91 3a 01 	lds	r26, 0x013A	; 0x80013a <L_3+0x2>
     92a:	b0 91 3b 01 	lds	r27, 0x013B	; 0x80013b <L_3+0x3>
     92e:	89 ab       	std	Y+49, r24	; 0x31
     930:	9a ab       	std	Y+50, r25	; 0x32
     932:	ab ab       	std	Y+51, r26	; 0x33
     934:	bc ab       	std	Y+52, r27	; 0x34
     936:	9c 01       	movw	r18, r24
     938:	ad 01       	movw	r20, r26
     93a:	c5 01       	movw	r24, r10
     93c:	b4 01       	movw	r22, r8
     93e:	0e 94 6b 10 	call	0x20d6	; 0x20d6 <__addsf3>
     942:	9b 01       	movw	r18, r22
     944:	ac 01       	movw	r20, r24
     946:	c7 01       	movw	r24, r14
     948:	b6 01       	movw	r22, r12
     94a:	0e 94 ba 12 	call	0x2574	; 0x2574 <__gesf2>
     94e:	18 16       	cp	r1, r24
     950:	0c f4       	brge	.+2      	; 0x954 <__stack+0x55>
     952:	a5 c1       	rjmp	.+842    	; 0xc9e <__stack+0x39f>
	        return 0;
        }
        else
        {
			//Vektor parallel zur z-Achse
			vec V_z = {0, 0, -1.0};
     954:	19 82       	std	Y+1, r1	; 0x01
     956:	1a 82       	std	Y+2, r1	; 0x02
     958:	1b 82       	std	Y+3, r1	; 0x03
     95a:	1c 82       	std	Y+4, r1	; 0x04
     95c:	1d 82       	std	Y+5, r1	; 0x05
     95e:	1e 82       	std	Y+6, r1	; 0x06
     960:	1f 82       	std	Y+7, r1	; 0x07
     962:	18 86       	std	Y+8, r1	; 0x08
     964:	80 e0       	ldi	r24, 0x00	; 0
     966:	90 e0       	ldi	r25, 0x00	; 0
     968:	a0 e8       	ldi	r26, 0x80	; 128
     96a:	bf eb       	ldi	r27, 0xBF	; 191
     96c:	89 87       	std	Y+9, r24	; 0x09
     96e:	9a 87       	std	Y+10, r25	; 0x0a
     970:	ab 87       	std	Y+11, r26	; 0x0b
     972:	bc 87       	std	Y+12, r27	; 0x0c
			//Hilfswinkel Phi_2a berechnen = Winkel zwischen V_G2_TCP und V_z
			//Immer nur der spitze Winkel wird berechnet
			double Phi_2a = acos(vec_skalarprod(&V_G2_TCP, &V_z)/L_G2_TCP);	
     974:	be 01       	movw	r22, r28
     976:	6f 5f       	subi	r22, 0xFF	; 255
     978:	7f 4f       	sbci	r23, 0xFF	; 255
     97a:	ce 01       	movw	r24, r28
     97c:	0d 96       	adiw	r24, 0x0d	; 13
     97e:	0e 94 f2 01 	call	0x3e4	; 0x3e4 <vec_skalarprod>
     982:	a7 01       	movw	r20, r14
     984:	96 01       	movw	r18, r12
     986:	0e 94 e1 10 	call	0x21c2	; 0x21c2 <__divsf3>
     98a:	0e 94 59 10 	call	0x20b2	; 0x20b2 <acos>
     98e:	6d ab       	std	Y+53, r22	; 0x35
     990:	7e ab       	std	Y+54, r23	; 0x36
     992:	8f ab       	std	Y+55, r24	; 0x37
     994:	98 af       	std	Y+56, r25	; 0x38
			
            //Hilfswinkel Phi_2b über den Kosinussatz berechnen
            double Phi_2b = acos((L_2*L_2 + L_G2_TCP*L_G2_TCP - L_3*L_3)/(2.0 * L_2 * L_G2_TCP));
     996:	a5 01       	movw	r20, r10
     998:	94 01       	movw	r18, r8
     99a:	c5 01       	movw	r24, r10
     99c:	b4 01       	movw	r22, r8
     99e:	0e 94 bf 12 	call	0x257e	; 0x257e <__mulsf3>
     9a2:	69 af       	std	Y+57, r22	; 0x39
     9a4:	7a af       	std	Y+58, r23	; 0x3a
     9a6:	8b af       	std	Y+59, r24	; 0x3b
     9a8:	9c af       	std	Y+60, r25	; 0x3c
     9aa:	a7 01       	movw	r20, r14
     9ac:	96 01       	movw	r18, r12
     9ae:	c7 01       	movw	r24, r14
     9b0:	b6 01       	movw	r22, r12
     9b2:	0e 94 bf 12 	call	0x257e	; 0x257e <__mulsf3>
     9b6:	21 96       	adiw	r28, 0x01	; 1
     9b8:	6c af       	std	Y+60, r22	; 0x3c
     9ba:	7d af       	std	Y+61, r23	; 0x3d
     9bc:	8e af       	std	Y+62, r24	; 0x3e
     9be:	9f af       	std	Y+63, r25	; 0x3f
     9c0:	21 97       	sbiw	r28, 0x01	; 1
     9c2:	9b 01       	movw	r18, r22
     9c4:	ac 01       	movw	r20, r24
     9c6:	69 ad       	ldd	r22, Y+57	; 0x39
     9c8:	7a ad       	ldd	r23, Y+58	; 0x3a
     9ca:	8b ad       	ldd	r24, Y+59	; 0x3b
     9cc:	9c ad       	ldd	r25, Y+60	; 0x3c
     9ce:	0e 94 6b 10 	call	0x20d6	; 0x20d6 <__addsf3>
     9d2:	2b 01       	movw	r4, r22
     9d4:	3c 01       	movw	r6, r24
     9d6:	29 a9       	ldd	r18, Y+49	; 0x31
     9d8:	3a a9       	ldd	r19, Y+50	; 0x32
     9da:	4b a9       	ldd	r20, Y+51	; 0x33
     9dc:	5c a9       	ldd	r21, Y+52	; 0x34
     9de:	ca 01       	movw	r24, r20
     9e0:	b9 01       	movw	r22, r18
     9e2:	0e 94 bf 12 	call	0x257e	; 0x257e <__mulsf3>
     9e6:	25 96       	adiw	r28, 0x05	; 5
     9e8:	6c af       	std	Y+60, r22	; 0x3c
     9ea:	7d af       	std	Y+61, r23	; 0x3d
     9ec:	8e af       	std	Y+62, r24	; 0x3e
     9ee:	9f af       	std	Y+63, r25	; 0x3f
     9f0:	25 97       	sbiw	r28, 0x05	; 5
     9f2:	9b 01       	movw	r18, r22
     9f4:	ac 01       	movw	r20, r24
     9f6:	c3 01       	movw	r24, r6
     9f8:	b2 01       	movw	r22, r4
     9fa:	0e 94 6a 10 	call	0x20d4	; 0x20d4 <__subsf3>
     9fe:	2b 01       	movw	r4, r22
     a00:	3c 01       	movw	r6, r24
     a02:	a5 01       	movw	r20, r10
     a04:	94 01       	movw	r18, r8
     a06:	c5 01       	movw	r24, r10
     a08:	b4 01       	movw	r22, r8
     a0a:	0e 94 6b 10 	call	0x20d6	; 0x20d6 <__addsf3>
     a0e:	9b 01       	movw	r18, r22
     a10:	ac 01       	movw	r20, r24
     a12:	c7 01       	movw	r24, r14
     a14:	b6 01       	movw	r22, r12
     a16:	0e 94 bf 12 	call	0x257e	; 0x257e <__mulsf3>
     a1a:	9b 01       	movw	r18, r22
     a1c:	ac 01       	movw	r20, r24
     a1e:	c3 01       	movw	r24, r6
     a20:	b2 01       	movw	r22, r4
     a22:	0e 94 e1 10 	call	0x21c2	; 0x21c2 <__divsf3>
     a26:	0e 94 59 10 	call	0x20b2	; 0x20b2 <acos>
     a2a:	6b 01       	movw	r12, r22
     a2c:	7c 01       	movw	r14, r24
            //Phi_21 und Phi_22 berechnen (2 Möglichkeiten für die Gelenkstellung)
            Ang->Phi_21 = Phi_2a + Phi_2b;
     a2e:	9b 01       	movw	r18, r22
     a30:	ac 01       	movw	r20, r24
     a32:	6d a9       	ldd	r22, Y+53	; 0x35
     a34:	7e a9       	ldd	r23, Y+54	; 0x36
     a36:	8f a9       	ldd	r24, Y+55	; 0x37
     a38:	98 ad       	ldd	r25, Y+56	; 0x38
     a3a:	0e 94 6b 10 	call	0x20d6	; 0x20d6 <__addsf3>
     a3e:	2b 01       	movw	r4, r22
     a40:	3c 01       	movw	r6, r24
     a42:	d8 01       	movw	r26, r16
     a44:	14 96       	adiw	r26, 0x04	; 4
     a46:	6d 93       	st	X+, r22
     a48:	7d 93       	st	X+, r23
     a4a:	8d 93       	st	X+, r24
     a4c:	9c 93       	st	X, r25
     a4e:	17 97       	sbiw	r26, 0x07	; 7
            Ang->Phi_22 = Phi_2a - Phi_2b;
     a50:	a7 01       	movw	r20, r14
     a52:	96 01       	movw	r18, r12
     a54:	6d a9       	ldd	r22, Y+53	; 0x35
     a56:	7e a9       	ldd	r23, Y+54	; 0x36
     a58:	8f a9       	ldd	r24, Y+55	; 0x37
     a5a:	98 ad       	ldd	r25, Y+56	; 0x38
     a5c:	0e 94 6a 10 	call	0x20d4	; 0x20d4 <__subsf3>
     a60:	6b 01       	movw	r12, r22
     a62:	7c 01       	movw	r14, r24
     a64:	f8 01       	movw	r30, r16
     a66:	60 87       	std	Z+8, r22	; 0x08
     a68:	71 87       	std	Z+9, r23	; 0x09
     a6a:	82 87       	std	Z+10, r24	; 0x0a
     a6c:	93 87       	std	Z+11, r25	; 0x0b
            //Phi_2a und Phi_2a auf die Neutralstellung des Roboters beziehen
            Ang->Phi_21 = (Ang->Phi_21 - PI/2.0) * -1.0;
     a6e:	80 91 44 01 	lds	r24, 0x0144	; 0x800144 <PI>
     a72:	90 91 45 01 	lds	r25, 0x0145	; 0x800145 <PI+0x1>
     a76:	a0 91 46 01 	lds	r26, 0x0146	; 0x800146 <PI+0x2>
     a7a:	b0 91 47 01 	lds	r27, 0x0147	; 0x800147 <PI+0x3>
     a7e:	8d ab       	std	Y+53, r24	; 0x35
     a80:	9e ab       	std	Y+54, r25	; 0x36
     a82:	af ab       	std	Y+55, r26	; 0x37
     a84:	b8 af       	std	Y+56, r27	; 0x38
     a86:	20 e0       	ldi	r18, 0x00	; 0
     a88:	30 e0       	ldi	r19, 0x00	; 0
     a8a:	40 e0       	ldi	r20, 0x00	; 0
     a8c:	5f e3       	ldi	r21, 0x3F	; 63
     a8e:	bc 01       	movw	r22, r24
     a90:	cd 01       	movw	r24, r26
     a92:	0e 94 bf 12 	call	0x257e	; 0x257e <__mulsf3>
     a96:	29 96       	adiw	r28, 0x09	; 9
     a98:	6c af       	std	Y+60, r22	; 0x3c
     a9a:	7d af       	std	Y+61, r23	; 0x3d
     a9c:	8e af       	std	Y+62, r24	; 0x3e
     a9e:	9f af       	std	Y+63, r25	; 0x3f
     aa0:	29 97       	sbiw	r28, 0x09	; 9
     aa2:	9b 01       	movw	r18, r22
     aa4:	ac 01       	movw	r20, r24
     aa6:	c3 01       	movw	r24, r6
     aa8:	b2 01       	movw	r22, r4
     aaa:	0e 94 6a 10 	call	0x20d4	; 0x20d4 <__subsf3>
     aae:	2b 01       	movw	r4, r22
     ab0:	3c 01       	movw	r6, r24
     ab2:	77 fa       	bst	r7, 7
     ab4:	70 94       	com	r7
     ab6:	77 f8       	bld	r7, 7
     ab8:	70 94       	com	r7
     aba:	d8 01       	movw	r26, r16
     abc:	14 96       	adiw	r26, 0x04	; 4
     abe:	4d 92       	st	X+, r4
     ac0:	5d 92       	st	X+, r5
     ac2:	6d 92       	st	X+, r6
     ac4:	7c 92       	st	X, r7
     ac6:	17 97       	sbiw	r26, 0x07	; 7
            Ang->Phi_22 = (Ang->Phi_22 - PI/2.0) * -1.0;	
     ac8:	29 96       	adiw	r28, 0x09	; 9
     aca:	2c ad       	ldd	r18, Y+60	; 0x3c
     acc:	3d ad       	ldd	r19, Y+61	; 0x3d
     ace:	4e ad       	ldd	r20, Y+62	; 0x3e
     ad0:	5f ad       	ldd	r21, Y+63	; 0x3f
     ad2:	29 97       	sbiw	r28, 0x09	; 9
     ad4:	c7 01       	movw	r24, r14
     ad6:	b6 01       	movw	r22, r12
     ad8:	0e 94 6a 10 	call	0x20d4	; 0x20d4 <__subsf3>
     adc:	6b 01       	movw	r12, r22
     ade:	7c 01       	movw	r14, r24
     ae0:	f7 fa       	bst	r15, 7
     ae2:	f0 94       	com	r15
     ae4:	f7 f8       	bld	r15, 7
     ae6:	f0 94       	com	r15
     ae8:	f8 01       	movw	r30, r16
     aea:	c0 86       	std	Z+8, r12	; 0x08
     aec:	d1 86       	std	Z+9, r13	; 0x09
     aee:	e2 86       	std	Z+10, r14	; 0x0a
     af0:	f3 86       	std	Z+11, r15	; 0x0b
            //////////////////////////
            // Berechnung von Phi_3 //
            //////////////////////////

            //Phi_31 berechnen (Kosinussatz)
            Ang->Phi_31 = acos((L_3*L_3 + L_2*L_2 - L_G2_TCP*L_G2_TCP)/(2.0 * L_3 * L_2));
     af2:	25 96       	adiw	r28, 0x05	; 5
     af4:	2c ad       	ldd	r18, Y+60	; 0x3c
     af6:	3d ad       	ldd	r19, Y+61	; 0x3d
     af8:	4e ad       	ldd	r20, Y+62	; 0x3e
     afa:	5f ad       	ldd	r21, Y+63	; 0x3f
     afc:	25 97       	sbiw	r28, 0x05	; 5
     afe:	69 ad       	ldd	r22, Y+57	; 0x39
     b00:	7a ad       	ldd	r23, Y+58	; 0x3a
     b02:	8b ad       	ldd	r24, Y+59	; 0x3b
     b04:	9c ad       	ldd	r25, Y+60	; 0x3c
     b06:	0e 94 6b 10 	call	0x20d6	; 0x20d6 <__addsf3>
     b0a:	21 96       	adiw	r28, 0x01	; 1
     b0c:	2c ad       	ldd	r18, Y+60	; 0x3c
     b0e:	3d ad       	ldd	r19, Y+61	; 0x3d
     b10:	4e ad       	ldd	r20, Y+62	; 0x3e
     b12:	5f ad       	ldd	r21, Y+63	; 0x3f
     b14:	21 97       	sbiw	r28, 0x01	; 1
     b16:	0e 94 6a 10 	call	0x20d4	; 0x20d4 <__subsf3>
     b1a:	69 af       	std	Y+57, r22	; 0x39
     b1c:	7a af       	std	Y+58, r23	; 0x3a
     b1e:	8b af       	std	Y+59, r24	; 0x3b
     b20:	9c af       	std	Y+60, r25	; 0x3c
     b22:	29 a9       	ldd	r18, Y+49	; 0x31
     b24:	3a a9       	ldd	r19, Y+50	; 0x32
     b26:	4b a9       	ldd	r20, Y+51	; 0x33
     b28:	5c a9       	ldd	r21, Y+52	; 0x34
     b2a:	ca 01       	movw	r24, r20
     b2c:	b9 01       	movw	r22, r18
     b2e:	0e 94 6b 10 	call	0x20d6	; 0x20d6 <__addsf3>
     b32:	9b 01       	movw	r18, r22
     b34:	ac 01       	movw	r20, r24
     b36:	c5 01       	movw	r24, r10
     b38:	b4 01       	movw	r22, r8
     b3a:	0e 94 bf 12 	call	0x257e	; 0x257e <__mulsf3>
     b3e:	9b 01       	movw	r18, r22
     b40:	ac 01       	movw	r20, r24
     b42:	69 ad       	ldd	r22, Y+57	; 0x39
     b44:	7a ad       	ldd	r23, Y+58	; 0x3a
     b46:	8b ad       	ldd	r24, Y+59	; 0x3b
     b48:	9c ad       	ldd	r25, Y+60	; 0x3c
     b4a:	0e 94 e1 10 	call	0x21c2	; 0x21c2 <__divsf3>
     b4e:	0e 94 59 10 	call	0x20b2	; 0x20b2 <acos>
     b52:	9b 01       	movw	r18, r22
     b54:	ac 01       	movw	r20, r24
     b56:	d8 01       	movw	r26, r16
     b58:	1c 96       	adiw	r26, 0x0c	; 12
     b5a:	6d 93       	st	X+, r22
     b5c:	7d 93       	st	X+, r23
     b5e:	8d 93       	st	X+, r24
     b60:	9c 93       	st	X, r25
     b62:	1f 97       	sbiw	r26, 0x0f	; 15
            //Phi_31 und Phi_32 auf die Neutralstellung des Roboters beziehen
            Ang->Phi_31 = PI - Ang->Phi_31;
     b64:	6d a9       	ldd	r22, Y+53	; 0x35
     b66:	7e a9       	ldd	r23, Y+54	; 0x36
     b68:	8f a9       	ldd	r24, Y+55	; 0x37
     b6a:	98 ad       	ldd	r25, Y+56	; 0x38
     b6c:	0e 94 6a 10 	call	0x20d4	; 0x20d4 <__subsf3>
     b70:	69 ab       	std	Y+49, r22	; 0x31
     b72:	7a ab       	std	Y+50, r23	; 0x32
     b74:	8b ab       	std	Y+51, r24	; 0x33
     b76:	9c ab       	std	Y+52, r25	; 0x34
     b78:	f8 01       	movw	r30, r16
     b7a:	64 87       	std	Z+12, r22	; 0x0c
     b7c:	75 87       	std	Z+13, r23	; 0x0d
     b7e:	86 87       	std	Z+14, r24	; 0x0e
     b80:	97 87       	std	Z+15, r25	; 0x0f
            Ang->Phi_32 = Ang->Phi_31 * -1.0;	
     b82:	dc 01       	movw	r26, r24
     b84:	cb 01       	movw	r24, r22
     b86:	b0 58       	subi	r27, 0x80	; 128
     b88:	80 8b       	std	Z+16, r24	; 0x10
     b8a:	91 8b       	std	Z+17, r25	; 0x11
     b8c:	a2 8b       	std	Z+18, r26	; 0x12
     b8e:	b3 8b       	std	Z+19, r27	; 0x13
			
            //Winkel auf unendliche Zahlen oder NAN prüfen
            if(isnan(Ang->Phi_1) || isnan(Ang->Phi_21) || isnan(Ang->Phi_22) || isnan(Ang->Phi_31) ||
     b90:	80 80       	ld	r8, Z
     b92:	91 80       	ldd	r9, Z+1	; 0x01
     b94:	a2 80       	ldd	r10, Z+2	; 0x02
     b96:	b3 80       	ldd	r11, Z+3	; 0x03
     b98:	a5 01       	movw	r20, r10
     b9a:	94 01       	movw	r18, r8
     b9c:	c5 01       	movw	r24, r10
     b9e:	b4 01       	movw	r22, r8
     ba0:	0e 94 ca 13 	call	0x2794	; 0x2794 <__unordsf2>
     ba4:	81 11       	cpse	r24, r1
     ba6:	7b c0       	rjmp	.+246    	; 0xc9e <__stack+0x39f>
     ba8:	a3 01       	movw	r20, r6
     baa:	92 01       	movw	r18, r4
     bac:	c3 01       	movw	r24, r6
     bae:	b2 01       	movw	r22, r4
     bb0:	0e 94 ca 13 	call	0x2794	; 0x2794 <__unordsf2>
     bb4:	81 11       	cpse	r24, r1
     bb6:	73 c0       	rjmp	.+230    	; 0xc9e <__stack+0x39f>
     bb8:	a7 01       	movw	r20, r14
     bba:	96 01       	movw	r18, r12
     bbc:	c7 01       	movw	r24, r14
     bbe:	b6 01       	movw	r22, r12
     bc0:	0e 94 ca 13 	call	0x2794	; 0x2794 <__unordsf2>
     bc4:	81 11       	cpse	r24, r1
     bc6:	6b c0       	rjmp	.+214    	; 0xc9e <__stack+0x39f>
     bc8:	29 a9       	ldd	r18, Y+49	; 0x31
     bca:	3a a9       	ldd	r19, Y+50	; 0x32
     bcc:	4b a9       	ldd	r20, Y+51	; 0x33
     bce:	5c a9       	ldd	r21, Y+52	; 0x34
     bd0:	ca 01       	movw	r24, r20
     bd2:	b9 01       	movw	r22, r18
     bd4:	0e 94 ca 13 	call	0x2794	; 0x2794 <__unordsf2>
     bd8:	81 11       	cpse	r24, r1
     bda:	61 c0       	rjmp	.+194    	; 0xc9e <__stack+0x39f>
               isinf(Ang->Phi_1) || isinf(Ang->Phi_21) || isinf(Ang->Phi_22) || isinf(Ang->Phi_31))
     bdc:	e8 94       	clt
     bde:	b7 f8       	bld	r11, 7
            //Phi_31 und Phi_32 auf die Neutralstellung des Roboters beziehen
            Ang->Phi_31 = PI - Ang->Phi_31;
            Ang->Phi_32 = Ang->Phi_31 * -1.0;	
			
            //Winkel auf unendliche Zahlen oder NAN prüfen
            if(isnan(Ang->Phi_1) || isnan(Ang->Phi_21) || isnan(Ang->Phi_22) || isnan(Ang->Phi_31) ||
     be0:	2f ef       	ldi	r18, 0xFF	; 255
     be2:	3f ef       	ldi	r19, 0xFF	; 255
     be4:	4f e7       	ldi	r20, 0x7F	; 127
     be6:	5f e7       	ldi	r21, 0x7F	; 127
     be8:	c5 01       	movw	r24, r10
     bea:	b4 01       	movw	r22, r8
     bec:	0e 94 ca 13 	call	0x2794	; 0x2794 <__unordsf2>
     bf0:	81 11       	cpse	r24, r1
     bf2:	0b c0       	rjmp	.+22     	; 0xc0a <__stack+0x30b>
     bf4:	2f ef       	ldi	r18, 0xFF	; 255
     bf6:	3f ef       	ldi	r19, 0xFF	; 255
     bf8:	4f e7       	ldi	r20, 0x7F	; 127
     bfa:	5f e7       	ldi	r21, 0x7F	; 127
     bfc:	c5 01       	movw	r24, r10
     bfe:	b4 01       	movw	r22, r8
     c00:	0e 94 d7 10 	call	0x21ae	; 0x21ae <__cmpsf2>
     c04:	18 16       	cp	r1, r24
     c06:	0c f4       	brge	.+2      	; 0xc0a <__stack+0x30b>
     c08:	4a c0       	rjmp	.+148    	; 0xc9e <__stack+0x39f>
               isinf(Ang->Phi_1) || isinf(Ang->Phi_21) || isinf(Ang->Phi_22) || isinf(Ang->Phi_31))
     c0a:	53 01       	movw	r10, r6
     c0c:	42 01       	movw	r8, r4
     c0e:	e8 94       	clt
     c10:	b7 f8       	bld	r11, 7
     c12:	2f ef       	ldi	r18, 0xFF	; 255
     c14:	3f ef       	ldi	r19, 0xFF	; 255
     c16:	4f e7       	ldi	r20, 0x7F	; 127
     c18:	5f e7       	ldi	r21, 0x7F	; 127
     c1a:	c5 01       	movw	r24, r10
     c1c:	b4 01       	movw	r22, r8
     c1e:	0e 94 ca 13 	call	0x2794	; 0x2794 <__unordsf2>
     c22:	81 11       	cpse	r24, r1
     c24:	0a c0       	rjmp	.+20     	; 0xc3a <__stack+0x33b>
     c26:	2f ef       	ldi	r18, 0xFF	; 255
     c28:	3f ef       	ldi	r19, 0xFF	; 255
     c2a:	4f e7       	ldi	r20, 0x7F	; 127
     c2c:	5f e7       	ldi	r21, 0x7F	; 127
     c2e:	c5 01       	movw	r24, r10
     c30:	b4 01       	movw	r22, r8
     c32:	0e 94 d7 10 	call	0x21ae	; 0x21ae <__cmpsf2>
     c36:	18 16       	cp	r1, r24
     c38:	94 f1       	brlt	.+100    	; 0xc9e <__stack+0x39f>
     c3a:	e8 94       	clt
     c3c:	f7 f8       	bld	r15, 7
     c3e:	2f ef       	ldi	r18, 0xFF	; 255
     c40:	3f ef       	ldi	r19, 0xFF	; 255
     c42:	4f e7       	ldi	r20, 0x7F	; 127
     c44:	5f e7       	ldi	r21, 0x7F	; 127
     c46:	c7 01       	movw	r24, r14
     c48:	b6 01       	movw	r22, r12
     c4a:	0e 94 ca 13 	call	0x2794	; 0x2794 <__unordsf2>
     c4e:	81 11       	cpse	r24, r1
     c50:	0a c0       	rjmp	.+20     	; 0xc66 <__stack+0x367>
     c52:	2f ef       	ldi	r18, 0xFF	; 255
     c54:	3f ef       	ldi	r19, 0xFF	; 255
     c56:	4f e7       	ldi	r20, 0x7F	; 127
     c58:	5f e7       	ldi	r21, 0x7F	; 127
     c5a:	c7 01       	movw	r24, r14
     c5c:	b6 01       	movw	r22, r12
     c5e:	0e 94 d7 10 	call	0x21ae	; 0x21ae <__cmpsf2>
     c62:	18 16       	cp	r1, r24
     c64:	e4 f0       	brlt	.+56     	; 0xc9e <__stack+0x39f>
     c66:	49 a8       	ldd	r4, Y+49	; 0x31
     c68:	5a a8       	ldd	r5, Y+50	; 0x32
     c6a:	6b a8       	ldd	r6, Y+51	; 0x33
     c6c:	7c a8       	ldd	r7, Y+52	; 0x34
     c6e:	e8 94       	clt
     c70:	77 f8       	bld	r7, 7
     c72:	2f ef       	ldi	r18, 0xFF	; 255
     c74:	3f ef       	ldi	r19, 0xFF	; 255
     c76:	4f e7       	ldi	r20, 0x7F	; 127
     c78:	5f e7       	ldi	r21, 0x7F	; 127
     c7a:	c3 01       	movw	r24, r6
     c7c:	b2 01       	movw	r22, r4
     c7e:	0e 94 ca 13 	call	0x2794	; 0x2794 <__unordsf2>
     c82:	81 11       	cpse	r24, r1
     c84:	0a c0       	rjmp	.+20     	; 0xc9a <__stack+0x39b>
     c86:	2f ef       	ldi	r18, 0xFF	; 255
     c88:	3f ef       	ldi	r19, 0xFF	; 255
     c8a:	4f e7       	ldi	r20, 0x7F	; 127
     c8c:	5f e7       	ldi	r21, 0x7F	; 127
     c8e:	c3 01       	movw	r24, r6
     c90:	b2 01       	movw	r22, r4
     c92:	0e 94 d7 10 	call	0x21ae	; 0x21ae <__cmpsf2>
     c96:	18 16       	cp	r1, r24
     c98:	14 f0       	brlt	.+4      	; 0xc9e <__stack+0x39f>
            {
			    return 0;	
			}
		}
	}	
	return 1;
     c9a:	81 e0       	ldi	r24, 0x01	; 1
     c9c:	03 c0       	rjmp	.+6      	; 0xca4 <__stack+0x3a5>
        //Betrag von V_G2_TCP bestimmen
        double L_G2_TCP = vec_betrag(&V_G2_TCP);
        //Wenn L_G2_TCP < L_2+L_3 ist, dann kann das Ziel nicht erreicht werden
        if(L_G2_TCP > (L_2 + L_3))
        {
	        return 0;
     c9e:	80 e0       	ldi	r24, 0x00	; 0
     ca0:	01 c0       	rjmp	.+2      	; 0xca4 <__stack+0x3a5>
uint8_t inv_kinematic(dot *TCP, ang *Ang)
{
    //x und y des TCP dürfen nicht beide 0 sein
    if(TCP->x == 0 && TCP->y == 0)	
	{
		return 0;
     ca2:	80 e0       	ldi	r24, 0x00	; 0
			    return 0;	
			}
		}
	}	
	return 1;
}
     ca4:	c8 5b       	subi	r28, 0xB8	; 184
     ca6:	df 4f       	sbci	r29, 0xFF	; 255
     ca8:	0f b6       	in	r0, 0x3f	; 63
     caa:	f8 94       	cli
     cac:	de bf       	out	0x3e, r29	; 62
     cae:	0f be       	out	0x3f, r0	; 63
     cb0:	cd bf       	out	0x3d, r28	; 61
     cb2:	df 91       	pop	r29
     cb4:	cf 91       	pop	r28
     cb6:	1f 91       	pop	r17
     cb8:	0f 91       	pop	r16
     cba:	ff 90       	pop	r15
     cbc:	ef 90       	pop	r14
     cbe:	df 90       	pop	r13
     cc0:	cf 90       	pop	r12
     cc2:	bf 90       	pop	r11
     cc4:	af 90       	pop	r10
     cc6:	9f 90       	pop	r9
     cc8:	8f 90       	pop	r8
     cca:	7f 90       	pop	r7
     ccc:	6f 90       	pop	r6
     cce:	5f 90       	pop	r5
     cd0:	4f 90       	pop	r4
     cd2:	08 95       	ret

00000cd4 <fwd_kinematic>:
//die Transformationsmatrix und der Punkt, der transformiert werden soll
//Ausserdem der Punkt, in dem die Transformation gespeichert wird
//Der letzte Parameter x gibt an, ob Gelenkstellung 1 oder 2 verwendet werden soll
//Kann der Punkt nicht berechnet werden, gibt die Funktion 0 zurück, ansonsten 1
uint8_t fwd_kinematic(ang *Ang, dot *p_src, dot *p_dst, uint8_t x)
{
     cd4:	2f 92       	push	r2
     cd6:	3f 92       	push	r3
     cd8:	4f 92       	push	r4
     cda:	5f 92       	push	r5
     cdc:	6f 92       	push	r6
     cde:	7f 92       	push	r7
     ce0:	8f 92       	push	r8
     ce2:	9f 92       	push	r9
     ce4:	af 92       	push	r10
     ce6:	bf 92       	push	r11
     ce8:	cf 92       	push	r12
     cea:	df 92       	push	r13
     cec:	ef 92       	push	r14
     cee:	ff 92       	push	r15
     cf0:	0f 93       	push	r16
     cf2:	1f 93       	push	r17
     cf4:	cf 93       	push	r28
     cf6:	df 93       	push	r29
     cf8:	cd b7       	in	r28, 0x3d	; 61
     cfa:	de b7       	in	r29, 0x3e	; 62
     cfc:	cc 5c       	subi	r28, 0xCC	; 204
     cfe:	d1 40       	sbci	r29, 0x01	; 1
     d00:	0f b6       	in	r0, 0x3f	; 63
     d02:	f8 94       	cli
     d04:	de bf       	out	0x3e, r29	; 62
     d06:	0f be       	out	0x3f, r0	; 63
     d08:	cd bf       	out	0x3d, r28	; 61
     d0a:	fc 01       	movw	r30, r24
     d0c:	1b 01       	movw	r2, r22
     d0e:	8a 01       	movw	r16, r20
	//Winkel setzen
	double Phi_1, Phi_2, Phi_3, Phi_4;
	Phi_1 = Ang->Phi_1;
     d10:	40 80       	ld	r4, Z
     d12:	51 80       	ldd	r5, Z+1	; 0x01
     d14:	62 80       	ldd	r6, Z+2	; 0x02
     d16:	73 80       	ldd	r7, Z+3	; 0x03
	if(x == 1)
     d18:	21 30       	cpi	r18, 0x01	; 1
     d1a:	89 f4       	brne	.+34     	; 0xd3e <fwd_kinematic+0x6a>
	{
		Phi_2 = Ang->Phi_21;	
     d1c:	c4 80       	ldd	r12, Z+4	; 0x04
     d1e:	d5 80       	ldd	r13, Z+5	; 0x05
     d20:	e6 80       	ldd	r14, Z+6	; 0x06
     d22:	f7 80       	ldd	r15, Z+7	; 0x07
		Phi_3 = Ang->Phi_31;			
     d24:	84 85       	ldd	r24, Z+12	; 0x0c
     d26:	95 85       	ldd	r25, Z+13	; 0x0d
     d28:	a6 85       	ldd	r26, Z+14	; 0x0e
     d2a:	b7 85       	ldd	r27, Z+15	; 0x0f
     d2c:	c7 53       	subi	r28, 0x37	; 55
     d2e:	de 4f       	sbci	r29, 0xFE	; 254
     d30:	88 83       	st	Y, r24
     d32:	99 83       	std	Y+1, r25	; 0x01
     d34:	aa 83       	std	Y+2, r26	; 0x02
     d36:	bb 83       	std	Y+3, r27	; 0x03
     d38:	c9 5c       	subi	r28, 0xC9	; 201
     d3a:	d1 40       	sbci	r29, 0x01	; 1
     d3c:	10 c0       	rjmp	.+32     	; 0xd5e <fwd_kinematic+0x8a>
	}
	else
	{
		Phi_2 = Ang->Phi_22;
     d3e:	c0 84       	ldd	r12, Z+8	; 0x08
     d40:	d1 84       	ldd	r13, Z+9	; 0x09
     d42:	e2 84       	ldd	r14, Z+10	; 0x0a
     d44:	f3 84       	ldd	r15, Z+11	; 0x0b
		Phi_3 = Ang->Phi_32;		
     d46:	80 89       	ldd	r24, Z+16	; 0x10
     d48:	91 89       	ldd	r25, Z+17	; 0x11
     d4a:	a2 89       	ldd	r26, Z+18	; 0x12
     d4c:	b3 89       	ldd	r27, Z+19	; 0x13
     d4e:	c7 53       	subi	r28, 0x37	; 55
     d50:	de 4f       	sbci	r29, 0xFE	; 254
     d52:	88 83       	st	Y, r24
     d54:	99 83       	std	Y+1, r25	; 0x01
     d56:	aa 83       	std	Y+2, r26	; 0x02
     d58:	bb 83       	std	Y+3, r27	; 0x03
     d5a:	c9 5c       	subi	r28, 0xC9	; 201
     d5c:	d1 40       	sbci	r29, 0x01	; 1
	}
	Phi_4 = Ang->Phi_4;
     d5e:	84 89       	ldd	r24, Z+20	; 0x14
     d60:	95 89       	ldd	r25, Z+21	; 0x15
     d62:	a6 89       	ldd	r26, Z+22	; 0x16
     d64:	b7 89       	ldd	r27, Z+23	; 0x17
     d66:	cf 53       	subi	r28, 0x3F	; 63
     d68:	de 4f       	sbci	r29, 0xFE	; 254
     d6a:	88 83       	st	Y, r24
     d6c:	99 83       	std	Y+1, r25	; 0x01
     d6e:	aa 83       	std	Y+2, r26	; 0x02
     d70:	bb 83       	std	Y+3, r27	; 0x03
     d72:	c1 5c       	subi	r28, 0xC1	; 193
     d74:	d1 40       	sbci	r29, 0x01	; 1
	
    //Transformationsmatrizen
	matr M01 = {{cos(Phi_1),    0,      -sin(Phi_1),    0},
     d76:	c3 01       	movw	r24, r6
     d78:	b2 01       	movw	r22, r4
     d7a:	0e 94 dc 10 	call	0x21b8	; 0x21b8 <cos>
     d7e:	4b 01       	movw	r8, r22
     d80:	5c 01       	movw	r10, r24
     d82:	69 83       	std	Y+1, r22	; 0x01
     d84:	7a 83       	std	Y+2, r23	; 0x02
     d86:	8b 83       	std	Y+3, r24	; 0x03
     d88:	9c 83       	std	Y+4, r25	; 0x04
     d8a:	1d 82       	std	Y+5, r1	; 0x05
     d8c:	1e 82       	std	Y+6, r1	; 0x06
     d8e:	1f 82       	std	Y+7, r1	; 0x07
     d90:	18 86       	std	Y+8, r1	; 0x08
     d92:	c3 01       	movw	r24, r6
     d94:	b2 01       	movw	r22, r4
     d96:	0e 94 7c 13 	call	0x26f8	; 0x26f8 <sin>
     d9a:	2b 01       	movw	r4, r22
     d9c:	3c 01       	movw	r6, r24
     d9e:	77 fa       	bst	r7, 7
     da0:	70 94       	com	r7
     da2:	77 f8       	bld	r7, 7
     da4:	70 94       	com	r7
     da6:	49 86       	std	Y+9, r4	; 0x09
     da8:	5a 86       	std	Y+10, r5	; 0x0a
     daa:	6b 86       	std	Y+11, r6	; 0x0b
     dac:	7c 86       	std	Y+12, r7	; 0x0c
     dae:	1d 86       	std	Y+13, r1	; 0x0d
     db0:	1e 86       	std	Y+14, r1	; 0x0e
     db2:	1f 86       	std	Y+15, r1	; 0x0f
     db4:	18 8a       	std	Y+16, r1	; 0x10
     db6:	69 8b       	std	Y+17, r22	; 0x11
     db8:	7a 8b       	std	Y+18, r23	; 0x12
     dba:	8b 8b       	std	Y+19, r24	; 0x13
     dbc:	9c 8b       	std	Y+20, r25	; 0x14
     dbe:	1d 8a       	std	Y+21, r1	; 0x15
     dc0:	1e 8a       	std	Y+22, r1	; 0x16
     dc2:	1f 8a       	std	Y+23, r1	; 0x17
     dc4:	18 8e       	std	Y+24, r1	; 0x18
     dc6:	89 8e       	std	Y+25, r8	; 0x19
     dc8:	9a 8e       	std	Y+26, r9	; 0x1a
     dca:	ab 8e       	std	Y+27, r10	; 0x1b
     dcc:	bc 8e       	std	Y+28, r11	; 0x1c
     dce:	1d 8e       	std	Y+29, r1	; 0x1d
     dd0:	1e 8e       	std	Y+30, r1	; 0x1e
     dd2:	1f 8e       	std	Y+31, r1	; 0x1f
     dd4:	18 a2       	std	Y+32, r1	; 0x20
     dd6:	19 a2       	std	Y+33, r1	; 0x21
     dd8:	1a a2       	std	Y+34, r1	; 0x22
     dda:	1b a2       	std	Y+35, r1	; 0x23
     ddc:	1c a2       	std	Y+36, r1	; 0x24
     dde:	80 e0       	ldi	r24, 0x00	; 0
     de0:	90 e0       	ldi	r25, 0x00	; 0
     de2:	a0 e8       	ldi	r26, 0x80	; 128
     de4:	bf eb       	ldi	r27, 0xBF	; 191
     de6:	8d a3       	std	Y+37, r24	; 0x25
     de8:	9e a3       	std	Y+38, r25	; 0x26
     dea:	af a3       	std	Y+39, r26	; 0x27
     dec:	b8 a7       	std	Y+40, r27	; 0x28
     dee:	19 a6       	std	Y+41, r1	; 0x29
     df0:	1a a6       	std	Y+42, r1	; 0x2a
     df2:	1b a6       	std	Y+43, r1	; 0x2b
     df4:	1c a6       	std	Y+44, r1	; 0x2c
     df6:	80 91 40 01 	lds	r24, 0x0140	; 0x800140 <L_1>
     dfa:	90 91 41 01 	lds	r25, 0x0141	; 0x800141 <L_1+0x1>
     dfe:	a0 91 42 01 	lds	r26, 0x0142	; 0x800142 <L_1+0x2>
     e02:	b0 91 43 01 	lds	r27, 0x0143	; 0x800143 <L_1+0x3>
     e06:	8d a7       	std	Y+45, r24	; 0x2d
     e08:	9e a7       	std	Y+46, r25	; 0x2e
     e0a:	af a7       	std	Y+47, r26	; 0x2f
     e0c:	b8 ab       	std	Y+48, r27	; 0x30
     e0e:	19 aa       	std	Y+49, r1	; 0x31
     e10:	1a aa       	std	Y+50, r1	; 0x32
     e12:	1b aa       	std	Y+51, r1	; 0x33
     e14:	1c aa       	std	Y+52, r1	; 0x34
     e16:	1d aa       	std	Y+53, r1	; 0x35
     e18:	1e aa       	std	Y+54, r1	; 0x36
     e1a:	1f aa       	std	Y+55, r1	; 0x37
     e1c:	18 ae       	std	Y+56, r1	; 0x38
     e1e:	19 ae       	std	Y+57, r1	; 0x39
     e20:	1a ae       	std	Y+58, r1	; 0x3a
     e22:	1b ae       	std	Y+59, r1	; 0x3b
     e24:	1c ae       	std	Y+60, r1	; 0x3c
     e26:	0f 2e       	mov	r0, r31
     e28:	41 2c       	mov	r4, r1
     e2a:	51 2c       	mov	r5, r1
     e2c:	f0 e8       	ldi	r31, 0x80	; 128
     e2e:	6f 2e       	mov	r6, r31
     e30:	ff e3       	ldi	r31, 0x3F	; 63
     e32:	7f 2e       	mov	r7, r31
     e34:	f0 2d       	mov	r31, r0
     e36:	21 96       	adiw	r28, 0x01	; 1
     e38:	4c ae       	std	Y+60, r4	; 0x3c
     e3a:	5d ae       	std	Y+61, r5	; 0x3d
     e3c:	6e ae       	std	Y+62, r6	; 0x3e
     e3e:	7f ae       	std	Y+63, r7	; 0x3f
     e40:	21 97       	sbiw	r28, 0x01	; 1
				{sin(Phi_1),    0,       cos(Phi_1),    0},
				{0,            -1.0,     0,             L_1},
				{0,             0,       0,             1.0}};
					
	matr M12 = {{cos(Phi_2),    -sin(Phi_2),    0,      L_2*cos(Phi_2)},
     e42:	c7 01       	movw	r24, r14
     e44:	b6 01       	movw	r22, r12
     e46:	0e 94 dc 10 	call	0x21b8	; 0x21b8 <cos>
     e4a:	4b 01       	movw	r8, r22
     e4c:	5c 01       	movw	r10, r24
     e4e:	25 96       	adiw	r28, 0x05	; 5
     e50:	6c af       	std	Y+60, r22	; 0x3c
     e52:	7d af       	std	Y+61, r23	; 0x3d
     e54:	8e af       	std	Y+62, r24	; 0x3e
     e56:	9f af       	std	Y+63, r25	; 0x3f
     e58:	25 97       	sbiw	r28, 0x05	; 5
     e5a:	c7 01       	movw	r24, r14
     e5c:	b6 01       	movw	r22, r12
     e5e:	0e 94 7c 13 	call	0x26f8	; 0x26f8 <sin>
     e62:	6b 01       	movw	r12, r22
     e64:	7c 01       	movw	r14, r24
     e66:	dc 01       	movw	r26, r24
     e68:	cb 01       	movw	r24, r22
     e6a:	b0 58       	subi	r27, 0x80	; 128
     e6c:	29 96       	adiw	r28, 0x09	; 9
     e6e:	8c af       	std	Y+60, r24	; 0x3c
     e70:	9d af       	std	Y+61, r25	; 0x3d
     e72:	ae af       	std	Y+62, r26	; 0x3e
     e74:	bf af       	std	Y+63, r27	; 0x3f
     e76:	29 97       	sbiw	r28, 0x09	; 9
     e78:	2d 96       	adiw	r28, 0x0d	; 13
     e7a:	1c ae       	std	Y+60, r1	; 0x3c
     e7c:	1d ae       	std	Y+61, r1	; 0x3d
     e7e:	1e ae       	std	Y+62, r1	; 0x3e
     e80:	1f ae       	std	Y+63, r1	; 0x3f
     e82:	2d 97       	sbiw	r28, 0x0d	; 13
     e84:	80 91 3c 01 	lds	r24, 0x013C	; 0x80013c <L_2>
     e88:	90 91 3d 01 	lds	r25, 0x013D	; 0x80013d <L_2+0x1>
     e8c:	a0 91 3e 01 	lds	r26, 0x013E	; 0x80013e <L_2+0x2>
     e90:	b0 91 3f 01 	lds	r27, 0x013F	; 0x80013f <L_2+0x3>
     e94:	cb 53       	subi	r28, 0x3B	; 59
     e96:	de 4f       	sbci	r29, 0xFE	; 254
     e98:	88 83       	st	Y, r24
     e9a:	99 83       	std	Y+1, r25	; 0x01
     e9c:	aa 83       	std	Y+2, r26	; 0x02
     e9e:	bb 83       	std	Y+3, r27	; 0x03
     ea0:	c5 5c       	subi	r28, 0xC5	; 197
     ea2:	d1 40       	sbci	r29, 0x01	; 1
     ea4:	9c 01       	movw	r18, r24
     ea6:	ad 01       	movw	r20, r26
     ea8:	c5 01       	movw	r24, r10
     eaa:	b4 01       	movw	r22, r8
     eac:	0e 94 bf 12 	call	0x257e	; 0x257e <__mulsf3>
     eb0:	61 96       	adiw	r28, 0x11	; 17
     eb2:	6c af       	std	Y+60, r22	; 0x3c
     eb4:	7d af       	std	Y+61, r23	; 0x3d
     eb6:	8e af       	std	Y+62, r24	; 0x3e
     eb8:	9f af       	std	Y+63, r25	; 0x3f
     eba:	61 97       	sbiw	r28, 0x11	; 17
     ebc:	65 96       	adiw	r28, 0x15	; 21
     ebe:	cc ae       	std	Y+60, r12	; 0x3c
     ec0:	dd ae       	std	Y+61, r13	; 0x3d
     ec2:	ee ae       	std	Y+62, r14	; 0x3e
     ec4:	ff ae       	std	Y+63, r15	; 0x3f
     ec6:	65 97       	sbiw	r28, 0x15	; 21
     ec8:	69 96       	adiw	r28, 0x19	; 25
     eca:	8c ae       	std	Y+60, r8	; 0x3c
     ecc:	9d ae       	std	Y+61, r9	; 0x3d
     ece:	ae ae       	std	Y+62, r10	; 0x3e
     ed0:	bf ae       	std	Y+63, r11	; 0x3f
     ed2:	69 97       	sbiw	r28, 0x19	; 25
     ed4:	6d 96       	adiw	r28, 0x1d	; 29
     ed6:	1c ae       	std	Y+60, r1	; 0x3c
     ed8:	1d ae       	std	Y+61, r1	; 0x3d
     eda:	1e ae       	std	Y+62, r1	; 0x3e
     edc:	1f ae       	std	Y+63, r1	; 0x3f
     ede:	6d 97       	sbiw	r28, 0x1d	; 29
				{sin(Phi_2),     cos(Phi_2),    0,      L_2*sin(Phi_2)},
     ee0:	cb 53       	subi	r28, 0x3B	; 59
     ee2:	de 4f       	sbci	r29, 0xFE	; 254
     ee4:	28 81       	ld	r18, Y
     ee6:	39 81       	ldd	r19, Y+1	; 0x01
     ee8:	4a 81       	ldd	r20, Y+2	; 0x02
     eea:	5b 81       	ldd	r21, Y+3	; 0x03
     eec:	c5 5c       	subi	r28, 0xC5	; 197
     eee:	d1 40       	sbci	r29, 0x01	; 1
     ef0:	c7 01       	movw	r24, r14
     ef2:	b6 01       	movw	r22, r12
     ef4:	0e 94 bf 12 	call	0x257e	; 0x257e <__mulsf3>
	matr M01 = {{cos(Phi_1),    0,      -sin(Phi_1),    0},
				{sin(Phi_1),    0,       cos(Phi_1),    0},
				{0,            -1.0,     0,             L_1},
				{0,             0,       0,             1.0}};
					
	matr M12 = {{cos(Phi_2),    -sin(Phi_2),    0,      L_2*cos(Phi_2)},
     ef8:	a1 96       	adiw	r28, 0x21	; 33
     efa:	6c af       	std	Y+60, r22	; 0x3c
     efc:	7d af       	std	Y+61, r23	; 0x3d
     efe:	8e af       	std	Y+62, r24	; 0x3e
     f00:	9f af       	std	Y+63, r25	; 0x3f
     f02:	a1 97       	sbiw	r28, 0x21	; 33
     f04:	a5 96       	adiw	r28, 0x25	; 37
     f06:	1c ae       	std	Y+60, r1	; 0x3c
     f08:	1d ae       	std	Y+61, r1	; 0x3d
     f0a:	1e ae       	std	Y+62, r1	; 0x3e
     f0c:	1f ae       	std	Y+63, r1	; 0x3f
     f0e:	a5 97       	sbiw	r28, 0x25	; 37
     f10:	a9 96       	adiw	r28, 0x29	; 41
     f12:	1c ae       	std	Y+60, r1	; 0x3c
     f14:	1d ae       	std	Y+61, r1	; 0x3d
     f16:	1e ae       	std	Y+62, r1	; 0x3e
     f18:	1f ae       	std	Y+63, r1	; 0x3f
     f1a:	a9 97       	sbiw	r28, 0x29	; 41
     f1c:	ad 96       	adiw	r28, 0x2d	; 45
     f1e:	4c ae       	std	Y+60, r4	; 0x3c
     f20:	5d ae       	std	Y+61, r5	; 0x3d
     f22:	6e ae       	std	Y+62, r6	; 0x3e
     f24:	7f ae       	std	Y+63, r7	; 0x3f
     f26:	ad 97       	sbiw	r28, 0x2d	; 45
     f28:	e1 96       	adiw	r28, 0x31	; 49
     f2a:	1c ae       	std	Y+60, r1	; 0x3c
     f2c:	1d ae       	std	Y+61, r1	; 0x3d
     f2e:	1e ae       	std	Y+62, r1	; 0x3e
     f30:	1f ae       	std	Y+63, r1	; 0x3f
     f32:	e1 97       	sbiw	r28, 0x31	; 49
     f34:	e5 96       	adiw	r28, 0x35	; 53
     f36:	1c ae       	std	Y+60, r1	; 0x3c
     f38:	1d ae       	std	Y+61, r1	; 0x3d
     f3a:	1e ae       	std	Y+62, r1	; 0x3e
     f3c:	1f ae       	std	Y+63, r1	; 0x3f
     f3e:	e5 97       	sbiw	r28, 0x35	; 53
     f40:	e9 96       	adiw	r28, 0x39	; 57
     f42:	1c ae       	std	Y+60, r1	; 0x3c
     f44:	1d ae       	std	Y+61, r1	; 0x3d
     f46:	1e ae       	std	Y+62, r1	; 0x3e
     f48:	1f ae       	std	Y+63, r1	; 0x3f
     f4a:	e9 97       	sbiw	r28, 0x39	; 57
     f4c:	ed 96       	adiw	r28, 0x3d	; 61
     f4e:	1c ae       	std	Y+60, r1	; 0x3c
     f50:	1d ae       	std	Y+61, r1	; 0x3d
     f52:	1e ae       	std	Y+62, r1	; 0x3e
     f54:	1f ae       	std	Y+63, r1	; 0x3f
     f56:	ed 97       	sbiw	r28, 0x3d	; 61
     f58:	c3 58       	subi	r28, 0x83	; 131
     f5a:	df 4f       	sbci	r29, 0xFF	; 255
     f5c:	48 82       	st	Y, r4
     f5e:	59 82       	std	Y+1, r5	; 0x01
     f60:	6a 82       	std	Y+2, r6	; 0x02
     f62:	7b 82       	std	Y+3, r7	; 0x03
     f64:	cd 57       	subi	r28, 0x7D	; 125
     f66:	d0 40       	sbci	r29, 0x00	; 0
				{sin(Phi_2),     cos(Phi_2),    0,      L_2*sin(Phi_2)},
				{0,              0,             1.0,    0},
				{0,              0,             0,      1.0}};

	matr M23 = {{cos(Phi_3+PI/2),    0,      sin(Phi_3+PI/2),      0},
     f68:	20 e0       	ldi	r18, 0x00	; 0
     f6a:	30 e0       	ldi	r19, 0x00	; 0
     f6c:	40 e0       	ldi	r20, 0x00	; 0
     f6e:	5f e3       	ldi	r21, 0x3F	; 63
     f70:	60 91 44 01 	lds	r22, 0x0144	; 0x800144 <PI>
     f74:	70 91 45 01 	lds	r23, 0x0145	; 0x800145 <PI+0x1>
     f78:	80 91 46 01 	lds	r24, 0x0146	; 0x800146 <PI+0x2>
     f7c:	90 91 47 01 	lds	r25, 0x0147	; 0x800147 <PI+0x3>
     f80:	0e 94 bf 12 	call	0x257e	; 0x257e <__mulsf3>
     f84:	9b 01       	movw	r18, r22
     f86:	ac 01       	movw	r20, r24
     f88:	c7 53       	subi	r28, 0x37	; 55
     f8a:	de 4f       	sbci	r29, 0xFE	; 254
     f8c:	68 81       	ld	r22, Y
     f8e:	79 81       	ldd	r23, Y+1	; 0x01
     f90:	8a 81       	ldd	r24, Y+2	; 0x02
     f92:	9b 81       	ldd	r25, Y+3	; 0x03
     f94:	c9 5c       	subi	r28, 0xC9	; 201
     f96:	d1 40       	sbci	r29, 0x01	; 1
     f98:	0e 94 6b 10 	call	0x20d6	; 0x20d6 <__addsf3>
     f9c:	4b 01       	movw	r8, r22
     f9e:	5c 01       	movw	r10, r24
     fa0:	0e 94 dc 10 	call	0x21b8	; 0x21b8 <cos>
     fa4:	6b 01       	movw	r12, r22
     fa6:	7c 01       	movw	r14, r24
     fa8:	cf 57       	subi	r28, 0x7F	; 127
     faa:	df 4f       	sbci	r29, 0xFF	; 255
     fac:	68 83       	st	Y, r22
     fae:	79 83       	std	Y+1, r23	; 0x01
     fb0:	8a 83       	std	Y+2, r24	; 0x02
     fb2:	9b 83       	std	Y+3, r25	; 0x03
     fb4:	c1 58       	subi	r28, 0x81	; 129
     fb6:	d0 40       	sbci	r29, 0x00	; 0
     fb8:	cb 57       	subi	r28, 0x7B	; 123
     fba:	df 4f       	sbci	r29, 0xFF	; 255
     fbc:	18 82       	st	Y, r1
     fbe:	19 82       	std	Y+1, r1	; 0x01
     fc0:	1a 82       	std	Y+2, r1	; 0x02
     fc2:	1b 82       	std	Y+3, r1	; 0x03
     fc4:	c5 58       	subi	r28, 0x85	; 133
     fc6:	d0 40       	sbci	r29, 0x00	; 0
     fc8:	c5 01       	movw	r24, r10
     fca:	b4 01       	movw	r22, r8
     fcc:	0e 94 7c 13 	call	0x26f8	; 0x26f8 <sin>
     fd0:	c7 57       	subi	r28, 0x77	; 119
     fd2:	df 4f       	sbci	r29, 0xFF	; 255
     fd4:	68 83       	st	Y, r22
     fd6:	79 83       	std	Y+1, r23	; 0x01
     fd8:	8a 83       	std	Y+2, r24	; 0x02
     fda:	9b 83       	std	Y+3, r25	; 0x03
     fdc:	c9 58       	subi	r28, 0x89	; 137
     fde:	d0 40       	sbci	r29, 0x00	; 0
     fe0:	c3 57       	subi	r28, 0x73	; 115
     fe2:	df 4f       	sbci	r29, 0xFF	; 255
     fe4:	18 82       	st	Y, r1
     fe6:	19 82       	std	Y+1, r1	; 0x01
     fe8:	1a 82       	std	Y+2, r1	; 0x02
     fea:	1b 82       	std	Y+3, r1	; 0x03
     fec:	cd 58       	subi	r28, 0x8D	; 141
     fee:	d0 40       	sbci	r29, 0x00	; 0
     ff0:	cf 56       	subi	r28, 0x6F	; 111
     ff2:	df 4f       	sbci	r29, 0xFF	; 255
     ff4:	68 83       	st	Y, r22
     ff6:	79 83       	std	Y+1, r23	; 0x01
     ff8:	8a 83       	std	Y+2, r24	; 0x02
     ffa:	9b 83       	std	Y+3, r25	; 0x03
     ffc:	c1 59       	subi	r28, 0x91	; 145
     ffe:	d0 40       	sbci	r29, 0x00	; 0
    1000:	cb 56       	subi	r28, 0x6B	; 107
    1002:	df 4f       	sbci	r29, 0xFF	; 255
    1004:	18 82       	st	Y, r1
    1006:	19 82       	std	Y+1, r1	; 0x01
    1008:	1a 82       	std	Y+2, r1	; 0x02
    100a:	1b 82       	std	Y+3, r1	; 0x03
    100c:	c5 59       	subi	r28, 0x95	; 149
    100e:	d0 40       	sbci	r29, 0x00	; 0
				{sin(Phi_3+PI/2),    0,     -cos(Phi_3+PI/2),      0},
    1010:	f7 fa       	bst	r15, 7
    1012:	f0 94       	com	r15
    1014:	f7 f8       	bld	r15, 7
    1016:	f0 94       	com	r15
	matr M12 = {{cos(Phi_2),    -sin(Phi_2),    0,      L_2*cos(Phi_2)},
				{sin(Phi_2),     cos(Phi_2),    0,      L_2*sin(Phi_2)},
				{0,              0,             1.0,    0},
				{0,              0,             0,      1.0}};

	matr M23 = {{cos(Phi_3+PI/2),    0,      sin(Phi_3+PI/2),      0},
    1018:	c7 56       	subi	r28, 0x67	; 103
    101a:	df 4f       	sbci	r29, 0xFF	; 255
    101c:	c8 82       	st	Y, r12
    101e:	d9 82       	std	Y+1, r13	; 0x01
    1020:	ea 82       	std	Y+2, r14	; 0x02
    1022:	fb 82       	std	Y+3, r15	; 0x03
    1024:	c9 59       	subi	r28, 0x99	; 153
    1026:	d0 40       	sbci	r29, 0x00	; 0
    1028:	c3 56       	subi	r28, 0x63	; 99
    102a:	df 4f       	sbci	r29, 0xFF	; 255
    102c:	18 82       	st	Y, r1
    102e:	19 82       	std	Y+1, r1	; 0x01
    1030:	1a 82       	std	Y+2, r1	; 0x02
    1032:	1b 82       	std	Y+3, r1	; 0x03
    1034:	cd 59       	subi	r28, 0x9D	; 157
    1036:	d0 40       	sbci	r29, 0x00	; 0
    1038:	cf 55       	subi	r28, 0x5F	; 95
    103a:	df 4f       	sbci	r29, 0xFF	; 255
    103c:	18 82       	st	Y, r1
    103e:	19 82       	std	Y+1, r1	; 0x01
    1040:	1a 82       	std	Y+2, r1	; 0x02
    1042:	1b 82       	std	Y+3, r1	; 0x03
    1044:	c1 5a       	subi	r28, 0xA1	; 161
    1046:	d0 40       	sbci	r29, 0x00	; 0
    1048:	cb 55       	subi	r28, 0x5B	; 91
    104a:	df 4f       	sbci	r29, 0xFF	; 255
    104c:	48 82       	st	Y, r4
    104e:	59 82       	std	Y+1, r5	; 0x01
    1050:	6a 82       	std	Y+2, r6	; 0x02
    1052:	7b 82       	std	Y+3, r7	; 0x03
    1054:	c5 5a       	subi	r28, 0xA5	; 165
    1056:	d0 40       	sbci	r29, 0x00	; 0
    1058:	c7 55       	subi	r28, 0x57	; 87
    105a:	df 4f       	sbci	r29, 0xFF	; 255
    105c:	18 82       	st	Y, r1
    105e:	19 82       	std	Y+1, r1	; 0x01
    1060:	1a 82       	std	Y+2, r1	; 0x02
    1062:	1b 82       	std	Y+3, r1	; 0x03
    1064:	c9 5a       	subi	r28, 0xA9	; 169
    1066:	d0 40       	sbci	r29, 0x00	; 0
    1068:	c3 55       	subi	r28, 0x53	; 83
    106a:	df 4f       	sbci	r29, 0xFF	; 255
    106c:	18 82       	st	Y, r1
    106e:	19 82       	std	Y+1, r1	; 0x01
    1070:	1a 82       	std	Y+2, r1	; 0x02
    1072:	1b 82       	std	Y+3, r1	; 0x03
    1074:	cd 5a       	subi	r28, 0xAD	; 173
    1076:	d0 40       	sbci	r29, 0x00	; 0
    1078:	cf 54       	subi	r28, 0x4F	; 79
    107a:	df 4f       	sbci	r29, 0xFF	; 255
    107c:	18 82       	st	Y, r1
    107e:	19 82       	std	Y+1, r1	; 0x01
    1080:	1a 82       	std	Y+2, r1	; 0x02
    1082:	1b 82       	std	Y+3, r1	; 0x03
    1084:	c1 5b       	subi	r28, 0xB1	; 177
    1086:	d0 40       	sbci	r29, 0x00	; 0
    1088:	cb 54       	subi	r28, 0x4B	; 75
    108a:	df 4f       	sbci	r29, 0xFF	; 255
    108c:	18 82       	st	Y, r1
    108e:	19 82       	std	Y+1, r1	; 0x01
    1090:	1a 82       	std	Y+2, r1	; 0x02
    1092:	1b 82       	std	Y+3, r1	; 0x03
    1094:	c5 5b       	subi	r28, 0xB5	; 181
    1096:	d0 40       	sbci	r29, 0x00	; 0
    1098:	c7 54       	subi	r28, 0x47	; 71
    109a:	df 4f       	sbci	r29, 0xFF	; 255
    109c:	18 82       	st	Y, r1
    109e:	19 82       	std	Y+1, r1	; 0x01
    10a0:	1a 82       	std	Y+2, r1	; 0x02
    10a2:	1b 82       	std	Y+3, r1	; 0x03
    10a4:	c9 5b       	subi	r28, 0xB9	; 185
    10a6:	d0 40       	sbci	r29, 0x00	; 0
    10a8:	c3 54       	subi	r28, 0x43	; 67
    10aa:	df 4f       	sbci	r29, 0xFF	; 255
    10ac:	48 82       	st	Y, r4
    10ae:	59 82       	std	Y+1, r5	; 0x01
    10b0:	6a 82       	std	Y+2, r6	; 0x02
    10b2:	7b 82       	std	Y+3, r7	; 0x03
    10b4:	cd 5b       	subi	r28, 0xBD	; 189
    10b6:	d0 40       	sbci	r29, 0x00	; 0
				{sin(Phi_3+PI/2),    0,     -cos(Phi_3+PI/2),      0},
				{0,                             1.0,    0,         0},
				{0,                             0,      0,         1.0}};

	matr M34 = {{cos(Phi_4),    -sin(Phi_4),    0,      0},
    10b8:	cf 53       	subi	r28, 0x3F	; 63
    10ba:	de 4f       	sbci	r29, 0xFE	; 254
    10bc:	68 81       	ld	r22, Y
    10be:	79 81       	ldd	r23, Y+1	; 0x01
    10c0:	8a 81       	ldd	r24, Y+2	; 0x02
    10c2:	9b 81       	ldd	r25, Y+3	; 0x03
    10c4:	c1 5c       	subi	r28, 0xC1	; 193
    10c6:	d1 40       	sbci	r29, 0x01	; 1
    10c8:	0e 94 dc 10 	call	0x21b8	; 0x21b8 <cos>
    10cc:	6b 01       	movw	r12, r22
    10ce:	7c 01       	movw	r14, r24
    10d0:	cf 53       	subi	r28, 0x3F	; 63
    10d2:	df 4f       	sbci	r29, 0xFF	; 255
    10d4:	68 83       	st	Y, r22
    10d6:	79 83       	std	Y+1, r23	; 0x01
    10d8:	8a 83       	std	Y+2, r24	; 0x02
    10da:	9b 83       	std	Y+3, r25	; 0x03
    10dc:	c1 5c       	subi	r28, 0xC1	; 193
    10de:	d0 40       	sbci	r29, 0x00	; 0
    10e0:	cf 53       	subi	r28, 0x3F	; 63
    10e2:	de 4f       	sbci	r29, 0xFE	; 254
    10e4:	68 81       	ld	r22, Y
    10e6:	79 81       	ldd	r23, Y+1	; 0x01
    10e8:	8a 81       	ldd	r24, Y+2	; 0x02
    10ea:	9b 81       	ldd	r25, Y+3	; 0x03
    10ec:	c1 5c       	subi	r28, 0xC1	; 193
    10ee:	d1 40       	sbci	r29, 0x01	; 1
    10f0:	0e 94 7c 13 	call	0x26f8	; 0x26f8 <sin>
    10f4:	4b 01       	movw	r8, r22
    10f6:	5c 01       	movw	r10, r24
    10f8:	b7 fa       	bst	r11, 7
    10fa:	b0 94       	com	r11
    10fc:	b7 f8       	bld	r11, 7
    10fe:	b0 94       	com	r11
    1100:	cb 53       	subi	r28, 0x3B	; 59
    1102:	df 4f       	sbci	r29, 0xFF	; 255
    1104:	88 82       	st	Y, r8
    1106:	99 82       	std	Y+1, r9	; 0x01
    1108:	aa 82       	std	Y+2, r10	; 0x02
    110a:	bb 82       	std	Y+3, r11	; 0x03
    110c:	c5 5c       	subi	r28, 0xC5	; 197
    110e:	d0 40       	sbci	r29, 0x00	; 0
    1110:	c7 53       	subi	r28, 0x37	; 55
    1112:	df 4f       	sbci	r29, 0xFF	; 255
    1114:	18 82       	st	Y, r1
    1116:	19 82       	std	Y+1, r1	; 0x01
    1118:	1a 82       	std	Y+2, r1	; 0x02
    111a:	1b 82       	std	Y+3, r1	; 0x03
    111c:	c9 5c       	subi	r28, 0xC9	; 201
    111e:	d0 40       	sbci	r29, 0x00	; 0
    1120:	c3 53       	subi	r28, 0x33	; 51
    1122:	df 4f       	sbci	r29, 0xFF	; 255
    1124:	18 82       	st	Y, r1
    1126:	19 82       	std	Y+1, r1	; 0x01
    1128:	1a 82       	std	Y+2, r1	; 0x02
    112a:	1b 82       	std	Y+3, r1	; 0x03
    112c:	cd 5c       	subi	r28, 0xCD	; 205
    112e:	d0 40       	sbci	r29, 0x00	; 0
    1130:	cf 52       	subi	r28, 0x2F	; 47
    1132:	df 4f       	sbci	r29, 0xFF	; 255
    1134:	68 83       	st	Y, r22
    1136:	79 83       	std	Y+1, r23	; 0x01
    1138:	8a 83       	std	Y+2, r24	; 0x02
    113a:	9b 83       	std	Y+3, r25	; 0x03
    113c:	c1 5d       	subi	r28, 0xD1	; 209
    113e:	d0 40       	sbci	r29, 0x00	; 0
    1140:	cb 52       	subi	r28, 0x2B	; 43
    1142:	df 4f       	sbci	r29, 0xFF	; 255
    1144:	c8 82       	st	Y, r12
    1146:	d9 82       	std	Y+1, r13	; 0x01
    1148:	ea 82       	std	Y+2, r14	; 0x02
    114a:	fb 82       	std	Y+3, r15	; 0x03
    114c:	c5 5d       	subi	r28, 0xD5	; 213
    114e:	d0 40       	sbci	r29, 0x00	; 0
    1150:	c7 52       	subi	r28, 0x27	; 39
    1152:	df 4f       	sbci	r29, 0xFF	; 255
    1154:	18 82       	st	Y, r1
    1156:	19 82       	std	Y+1, r1	; 0x01
    1158:	1a 82       	std	Y+2, r1	; 0x02
    115a:	1b 82       	std	Y+3, r1	; 0x03
    115c:	c9 5d       	subi	r28, 0xD9	; 217
    115e:	d0 40       	sbci	r29, 0x00	; 0
    1160:	c3 52       	subi	r28, 0x23	; 35
    1162:	df 4f       	sbci	r29, 0xFF	; 255
    1164:	18 82       	st	Y, r1
    1166:	19 82       	std	Y+1, r1	; 0x01
    1168:	1a 82       	std	Y+2, r1	; 0x02
    116a:	1b 82       	std	Y+3, r1	; 0x03
    116c:	cd 5d       	subi	r28, 0xDD	; 221
    116e:	d0 40       	sbci	r29, 0x00	; 0
    1170:	cf 51       	subi	r28, 0x1F	; 31
    1172:	df 4f       	sbci	r29, 0xFF	; 255
    1174:	18 82       	st	Y, r1
    1176:	19 82       	std	Y+1, r1	; 0x01
    1178:	1a 82       	std	Y+2, r1	; 0x02
    117a:	1b 82       	std	Y+3, r1	; 0x03
    117c:	c1 5e       	subi	r28, 0xE1	; 225
    117e:	d0 40       	sbci	r29, 0x00	; 0
    1180:	cb 51       	subi	r28, 0x1B	; 27
    1182:	df 4f       	sbci	r29, 0xFF	; 255
    1184:	18 82       	st	Y, r1
    1186:	19 82       	std	Y+1, r1	; 0x01
    1188:	1a 82       	std	Y+2, r1	; 0x02
    118a:	1b 82       	std	Y+3, r1	; 0x03
    118c:	c5 5e       	subi	r28, 0xE5	; 229
    118e:	d0 40       	sbci	r29, 0x00	; 0
    1190:	c7 51       	subi	r28, 0x17	; 23
    1192:	df 4f       	sbci	r29, 0xFF	; 255
    1194:	48 82       	st	Y, r4
    1196:	59 82       	std	Y+1, r5	; 0x01
    1198:	6a 82       	std	Y+2, r6	; 0x02
    119a:	7b 82       	std	Y+3, r7	; 0x03
    119c:	c9 5e       	subi	r28, 0xE9	; 233
    119e:	d0 40       	sbci	r29, 0x00	; 0
    11a0:	80 91 38 01 	lds	r24, 0x0138	; 0x800138 <L_3>
    11a4:	90 91 39 01 	lds	r25, 0x0139	; 0x800139 <L_3+0x1>
    11a8:	a0 91 3a 01 	lds	r26, 0x013A	; 0x80013a <L_3+0x2>
    11ac:	b0 91 3b 01 	lds	r27, 0x013B	; 0x80013b <L_3+0x3>
    11b0:	c3 51       	subi	r28, 0x13	; 19
    11b2:	df 4f       	sbci	r29, 0xFF	; 255
    11b4:	88 83       	st	Y, r24
    11b6:	99 83       	std	Y+1, r25	; 0x01
    11b8:	aa 83       	std	Y+2, r26	; 0x02
    11ba:	bb 83       	std	Y+3, r27	; 0x03
    11bc:	cd 5e       	subi	r28, 0xED	; 237
    11be:	d0 40       	sbci	r29, 0x00	; 0
    11c0:	cf 50       	subi	r28, 0x0F	; 15
    11c2:	df 4f       	sbci	r29, 0xFF	; 255
    11c4:	18 82       	st	Y, r1
    11c6:	19 82       	std	Y+1, r1	; 0x01
    11c8:	1a 82       	std	Y+2, r1	; 0x02
    11ca:	1b 82       	std	Y+3, r1	; 0x03
    11cc:	c1 5f       	subi	r28, 0xF1	; 241
    11ce:	d0 40       	sbci	r29, 0x00	; 0
    11d0:	cb 50       	subi	r28, 0x0B	; 11
    11d2:	df 4f       	sbci	r29, 0xFF	; 255
    11d4:	18 82       	st	Y, r1
    11d6:	19 82       	std	Y+1, r1	; 0x01
    11d8:	1a 82       	std	Y+2, r1	; 0x02
    11da:	1b 82       	std	Y+3, r1	; 0x03
    11dc:	c5 5f       	subi	r28, 0xF5	; 245
    11de:	d0 40       	sbci	r29, 0x00	; 0
    11e0:	c7 50       	subi	r28, 0x07	; 7
    11e2:	df 4f       	sbci	r29, 0xFF	; 255
    11e4:	18 82       	st	Y, r1
    11e6:	19 82       	std	Y+1, r1	; 0x01
    11e8:	1a 82       	std	Y+2, r1	; 0x02
    11ea:	1b 82       	std	Y+3, r1	; 0x03
    11ec:	c9 5f       	subi	r28, 0xF9	; 249
    11ee:	d0 40       	sbci	r29, 0x00	; 0
    11f0:	c3 50       	subi	r28, 0x03	; 3
    11f2:	df 4f       	sbci	r29, 0xFF	; 255
    11f4:	48 82       	st	Y, r4
    11f6:	59 82       	std	Y+1, r5	; 0x01
    11f8:	6a 82       	std	Y+2, r6	; 0x02
    11fa:	7b 82       	std	Y+3, r7	; 0x03
    11fc:	cd 5f       	subi	r28, 0xFD	; 253
    11fe:	d0 40       	sbci	r29, 0x00	; 0
				{0,              0,             0,      1.0}};
					
	//Rotationsmatrizen multiplizieren
	//Überladung von Operatoren in C nicht möglich :-(
	matr M02, M03, M04;
	matr_x_matr(M01, M12, M02);
    1200:	ae 01       	movw	r20, r28
    1202:	4f 5f       	subi	r20, 0xFF	; 255
    1204:	5e 4f       	sbci	r21, 0xFE	; 254
    1206:	be 01       	movw	r22, r28
    1208:	6f 5b       	subi	r22, 0xBF	; 191
    120a:	7f 4f       	sbci	r23, 0xFF	; 255
    120c:	ce 01       	movw	r24, r28
    120e:	01 96       	adiw	r24, 0x01	; 1
    1210:	0e 94 77 02 	call	0x4ee	; 0x4ee <matr_x_matr>
	matr_x_matr(M02, M23, M03);
    1214:	ae 01       	movw	r20, r28
    1216:	4f 5b       	subi	r20, 0xBF	; 191
    1218:	5e 4f       	sbci	r21, 0xFE	; 254
    121a:	be 01       	movw	r22, r28
    121c:	6f 57       	subi	r22, 0x7F	; 127
    121e:	7f 4f       	sbci	r23, 0xFF	; 255
    1220:	ce 01       	movw	r24, r28
    1222:	8f 5f       	subi	r24, 0xFF	; 255
    1224:	9e 4f       	sbci	r25, 0xFE	; 254
    1226:	0e 94 77 02 	call	0x4ee	; 0x4ee <matr_x_matr>
	matr_x_matr(M03, M34, M04);
    122a:	ae 01       	movw	r20, r28
    122c:	4f 57       	subi	r20, 0x7F	; 127
    122e:	5e 4f       	sbci	r21, 0xFE	; 254
    1230:	be 01       	movw	r22, r28
    1232:	6f 53       	subi	r22, 0x3F	; 63
    1234:	7f 4f       	sbci	r23, 0xFF	; 255
    1236:	ce 01       	movw	r24, r28
    1238:	8f 5b       	subi	r24, 0xBF	; 191
    123a:	9e 4f       	sbci	r25, 0xFE	; 254
    123c:	0e 94 77 02 	call	0x4ee	; 0x4ee <matr_x_matr>
	
	//Gesamtmatrix mit übergebenem Punk multiplizieren
	matr_x_dot(M04, p_src, p_dst);
    1240:	a8 01       	movw	r20, r16
    1242:	b1 01       	movw	r22, r2
    1244:	ce 01       	movw	r24, r28
    1246:	8f 57       	subi	r24, 0x7F	; 127
    1248:	9e 4f       	sbci	r25, 0xFE	; 254
    124a:	0e 94 25 03 	call	0x64a	; 0x64a <matr_x_dot>
	
	//Koordinaten des transformierten Punktes auf inf und nan testen
    if(isnan(p_dst->x) || isnan(p_dst->y) || isnan(p_dst->z) ||
    124e:	d8 01       	movw	r26, r16
    1250:	cd 90       	ld	r12, X+
    1252:	dd 90       	ld	r13, X+
    1254:	ed 90       	ld	r14, X+
    1256:	fc 90       	ld	r15, X
    1258:	a7 01       	movw	r20, r14
    125a:	96 01       	movw	r18, r12
    125c:	c7 01       	movw	r24, r14
    125e:	b6 01       	movw	r22, r12
    1260:	0e 94 ca 13 	call	0x2794	; 0x2794 <__unordsf2>
    1264:	81 11       	cpse	r24, r1
    1266:	60 c0       	rjmp	.+192    	; 0x1328 <fwd_kinematic+0x654>
    1268:	f8 01       	movw	r30, r16
    126a:	84 80       	ldd	r8, Z+4	; 0x04
    126c:	95 80       	ldd	r9, Z+5	; 0x05
    126e:	a6 80       	ldd	r10, Z+6	; 0x06
    1270:	b7 80       	ldd	r11, Z+7	; 0x07
    1272:	a5 01       	movw	r20, r10
    1274:	94 01       	movw	r18, r8
    1276:	c5 01       	movw	r24, r10
    1278:	b4 01       	movw	r22, r8
    127a:	0e 94 ca 13 	call	0x2794	; 0x2794 <__unordsf2>
    127e:	81 11       	cpse	r24, r1
    1280:	55 c0       	rjmp	.+170    	; 0x132c <fwd_kinematic+0x658>
    1282:	d8 01       	movw	r26, r16
    1284:	18 96       	adiw	r26, 0x08	; 8
    1286:	4d 90       	ld	r4, X+
    1288:	5d 90       	ld	r5, X+
    128a:	6d 90       	ld	r6, X+
    128c:	7c 90       	ld	r7, X
    128e:	1b 97       	sbiw	r26, 0x0b	; 11
    1290:	a3 01       	movw	r20, r6
    1292:	92 01       	movw	r18, r4
    1294:	c3 01       	movw	r24, r6
    1296:	b2 01       	movw	r22, r4
    1298:	0e 94 ca 13 	call	0x2794	; 0x2794 <__unordsf2>
    129c:	81 11       	cpse	r24, r1
    129e:	48 c0       	rjmp	.+144    	; 0x1330 <fwd_kinematic+0x65c>
	   isinf(p_dst->x) || isinf(p_dst->y) || isinf(p_dst->z))
    12a0:	e8 94       	clt
    12a2:	f7 f8       	bld	r15, 7
	
	//Gesamtmatrix mit übergebenem Punk multiplizieren
	matr_x_dot(M04, p_src, p_dst);
	
	//Koordinaten des transformierten Punktes auf inf und nan testen
    if(isnan(p_dst->x) || isnan(p_dst->y) || isnan(p_dst->z) ||
    12a4:	2f ef       	ldi	r18, 0xFF	; 255
    12a6:	3f ef       	ldi	r19, 0xFF	; 255
    12a8:	4f e7       	ldi	r20, 0x7F	; 127
    12aa:	5f e7       	ldi	r21, 0x7F	; 127
    12ac:	c7 01       	movw	r24, r14
    12ae:	b6 01       	movw	r22, r12
    12b0:	0e 94 ca 13 	call	0x2794	; 0x2794 <__unordsf2>
    12b4:	81 11       	cpse	r24, r1
    12b6:	0a c0       	rjmp	.+20     	; 0x12cc <fwd_kinematic+0x5f8>
    12b8:	2f ef       	ldi	r18, 0xFF	; 255
    12ba:	3f ef       	ldi	r19, 0xFF	; 255
    12bc:	4f e7       	ldi	r20, 0x7F	; 127
    12be:	5f e7       	ldi	r21, 0x7F	; 127
    12c0:	c7 01       	movw	r24, r14
    12c2:	b6 01       	movw	r22, r12
    12c4:	0e 94 d7 10 	call	0x21ae	; 0x21ae <__cmpsf2>
    12c8:	18 16       	cp	r1, r24
    12ca:	a4 f1       	brlt	.+104    	; 0x1334 <fwd_kinematic+0x660>
	   isinf(p_dst->x) || isinf(p_dst->y) || isinf(p_dst->z))
    12cc:	e8 94       	clt
    12ce:	b7 f8       	bld	r11, 7
    12d0:	2f ef       	ldi	r18, 0xFF	; 255
    12d2:	3f ef       	ldi	r19, 0xFF	; 255
    12d4:	4f e7       	ldi	r20, 0x7F	; 127
    12d6:	5f e7       	ldi	r21, 0x7F	; 127
    12d8:	c5 01       	movw	r24, r10
    12da:	b4 01       	movw	r22, r8
    12dc:	0e 94 ca 13 	call	0x2794	; 0x2794 <__unordsf2>
    12e0:	81 11       	cpse	r24, r1
    12e2:	0a c0       	rjmp	.+20     	; 0x12f8 <fwd_kinematic+0x624>
    12e4:	2f ef       	ldi	r18, 0xFF	; 255
    12e6:	3f ef       	ldi	r19, 0xFF	; 255
    12e8:	4f e7       	ldi	r20, 0x7F	; 127
    12ea:	5f e7       	ldi	r21, 0x7F	; 127
    12ec:	c5 01       	movw	r24, r10
    12ee:	b4 01       	movw	r22, r8
    12f0:	0e 94 d7 10 	call	0x21ae	; 0x21ae <__cmpsf2>
    12f4:	18 16       	cp	r1, r24
    12f6:	04 f1       	brlt	.+64     	; 0x1338 <fwd_kinematic+0x664>
    12f8:	e8 94       	clt
    12fa:	77 f8       	bld	r7, 7
    12fc:	2f ef       	ldi	r18, 0xFF	; 255
    12fe:	3f ef       	ldi	r19, 0xFF	; 255
    1300:	4f e7       	ldi	r20, 0x7F	; 127
    1302:	5f e7       	ldi	r21, 0x7F	; 127
    1304:	c3 01       	movw	r24, r6
    1306:	b2 01       	movw	r22, r4
    1308:	0e 94 ca 13 	call	0x2794	; 0x2794 <__unordsf2>
    130c:	81 11       	cpse	r24, r1
    130e:	16 c0       	rjmp	.+44     	; 0x133c <fwd_kinematic+0x668>
    1310:	2f ef       	ldi	r18, 0xFF	; 255
    1312:	3f ef       	ldi	r19, 0xFF	; 255
    1314:	4f e7       	ldi	r20, 0x7F	; 127
    1316:	5f e7       	ldi	r21, 0x7F	; 127
    1318:	c3 01       	movw	r24, r6
    131a:	b2 01       	movw	r22, r4
    131c:	0e 94 d7 10 	call	0x21ae	; 0x21ae <__cmpsf2>
    1320:	18 16       	cp	r1, r24
    1322:	64 f4       	brge	.+24     	; 0x133c <fwd_kinematic+0x668>
    {
	    return 0;
    1324:	80 e0       	ldi	r24, 0x00	; 0
    1326:	0b c0       	rjmp	.+22     	; 0x133e <fwd_kinematic+0x66a>
    1328:	80 e0       	ldi	r24, 0x00	; 0
    132a:	09 c0       	rjmp	.+18     	; 0x133e <fwd_kinematic+0x66a>
    132c:	80 e0       	ldi	r24, 0x00	; 0
    132e:	07 c0       	rjmp	.+14     	; 0x133e <fwd_kinematic+0x66a>
    1330:	80 e0       	ldi	r24, 0x00	; 0
    1332:	05 c0       	rjmp	.+10     	; 0x133e <fwd_kinematic+0x66a>
    1334:	80 e0       	ldi	r24, 0x00	; 0
    1336:	03 c0       	rjmp	.+6      	; 0x133e <fwd_kinematic+0x66a>
    1338:	80 e0       	ldi	r24, 0x00	; 0
    133a:	01 c0       	rjmp	.+2      	; 0x133e <fwd_kinematic+0x66a>
    }	
	else
	{
		return 1;	
    133c:	81 e0       	ldi	r24, 0x01	; 1
	}		
}
    133e:	c4 53       	subi	r28, 0x34	; 52
    1340:	de 4f       	sbci	r29, 0xFE	; 254
    1342:	0f b6       	in	r0, 0x3f	; 63
    1344:	f8 94       	cli
    1346:	de bf       	out	0x3e, r29	; 62
    1348:	0f be       	out	0x3f, r0	; 63
    134a:	cd bf       	out	0x3d, r28	; 61
    134c:	df 91       	pop	r29
    134e:	cf 91       	pop	r28
    1350:	1f 91       	pop	r17
    1352:	0f 91       	pop	r16
    1354:	ff 90       	pop	r15
    1356:	ef 90       	pop	r14
    1358:	df 90       	pop	r13
    135a:	cf 90       	pop	r12
    135c:	bf 90       	pop	r11
    135e:	af 90       	pop	r10
    1360:	9f 90       	pop	r9
    1362:	8f 90       	pop	r8
    1364:	7f 90       	pop	r7
    1366:	6f 90       	pop	r6
    1368:	5f 90       	pop	r5
    136a:	4f 90       	pop	r4
    136c:	3f 90       	pop	r3
    136e:	2f 90       	pop	r2
    1370:	08 95       	ret

00001372 <ang_to_puls>:

//Umrechnung der Gelenkwinkel [rad] in Pulslängen [µs*2]
//Übergabe der Servonummer (1-5) und des Winkels [Rad]
uint16_t ang_to_puls(uint8_t s_nr, double ang, led *Led) 
{
    1372:	2f 92       	push	r2
    1374:	3f 92       	push	r3
    1376:	4f 92       	push	r4
    1378:	5f 92       	push	r5
    137a:	6f 92       	push	r6
    137c:	7f 92       	push	r7
    137e:	8f 92       	push	r8
    1380:	9f 92       	push	r9
    1382:	af 92       	push	r10
    1384:	bf 92       	push	r11
    1386:	cf 92       	push	r12
    1388:	df 92       	push	r13
    138a:	ef 92       	push	r14
    138c:	ff 92       	push	r15
    138e:	0f 93       	push	r16
    1390:	1f 93       	push	r17
    1392:	cf 93       	push	r28
    1394:	df 93       	push	r29
    1396:	4a 01       	movw	r8, r20
    1398:	5b 01       	movw	r10, r22
    139a:	19 01       	movw	r2, r18
	//Geradengleichung mit den Servo-Konstanten:
	//Puls y = ((Puls(0°)-Puls(-90°))/(Pi/2)) * Winkel x + Puls(0°)
    double pulswidth = ((((double)SERVO_const[(s_nr-1)][1] - SERVO_const[(s_nr-1)][2])/(PI/2)) * ang) + SERVO_const[(s_nr-1)][1];
    139c:	c8 2f       	mov	r28, r24
    139e:	d0 e0       	ldi	r29, 0x00	; 0
    13a0:	21 97       	sbiw	r28, 0x01	; 1
    13a2:	8e 01       	movw	r16, r28
    13a4:	00 0f       	add	r16, r16
    13a6:	11 1f       	adc	r17, r17
    13a8:	ce 01       	movw	r24, r28
    13aa:	88 0f       	add	r24, r24
    13ac:	99 1f       	adc	r25, r25
    13ae:	88 0f       	add	r24, r24
    13b0:	99 1f       	adc	r25, r25
    13b2:	88 0f       	add	r24, r24
    13b4:	99 1f       	adc	r25, r25
    13b6:	08 0f       	add	r16, r24
    13b8:	19 1f       	adc	r17, r25
    13ba:	0a 5f       	subi	r16, 0xFA	; 250
    13bc:	1e 4f       	sbci	r17, 0xFE	; 254
    13be:	f8 01       	movw	r30, r16
    13c0:	62 81       	ldd	r22, Z+2	; 0x02
    13c2:	73 81       	ldd	r23, Z+3	; 0x03
    13c4:	80 e0       	ldi	r24, 0x00	; 0
    13c6:	90 e0       	ldi	r25, 0x00	; 0
    13c8:	0e 94 82 11 	call	0x2304	; 0x2304 <__floatunsisf>
    13cc:	6b 01       	movw	r12, r22
    13ce:	7c 01       	movw	r14, r24
    13d0:	f8 01       	movw	r30, r16
    13d2:	64 81       	ldd	r22, Z+4	; 0x04
    13d4:	75 81       	ldd	r23, Z+5	; 0x05
    13d6:	80 e0       	ldi	r24, 0x00	; 0
    13d8:	90 e0       	ldi	r25, 0x00	; 0
    13da:	0e 94 82 11 	call	0x2304	; 0x2304 <__floatunsisf>
    13de:	9b 01       	movw	r18, r22
    13e0:	ac 01       	movw	r20, r24
    13e2:	c7 01       	movw	r24, r14
    13e4:	b6 01       	movw	r22, r12
    13e6:	0e 94 6a 10 	call	0x20d4	; 0x20d4 <__subsf3>
    13ea:	2b 01       	movw	r4, r22
    13ec:	3c 01       	movw	r6, r24
    13ee:	20 e0       	ldi	r18, 0x00	; 0
    13f0:	30 e0       	ldi	r19, 0x00	; 0
    13f2:	40 e0       	ldi	r20, 0x00	; 0
    13f4:	5f e3       	ldi	r21, 0x3F	; 63
    13f6:	60 91 44 01 	lds	r22, 0x0144	; 0x800144 <PI>
    13fa:	70 91 45 01 	lds	r23, 0x0145	; 0x800145 <PI+0x1>
    13fe:	80 91 46 01 	lds	r24, 0x0146	; 0x800146 <PI+0x2>
    1402:	90 91 47 01 	lds	r25, 0x0147	; 0x800147 <PI+0x3>
    1406:	0e 94 bf 12 	call	0x257e	; 0x257e <__mulsf3>
    140a:	9b 01       	movw	r18, r22
    140c:	ac 01       	movw	r20, r24
    140e:	c3 01       	movw	r24, r6
    1410:	b2 01       	movw	r22, r4
    1412:	0e 94 e1 10 	call	0x21c2	; 0x21c2 <__divsf3>
    1416:	a5 01       	movw	r20, r10
    1418:	94 01       	movw	r18, r8
    141a:	0e 94 bf 12 	call	0x257e	; 0x257e <__mulsf3>
    141e:	9b 01       	movw	r18, r22
    1420:	ac 01       	movw	r20, r24
    1422:	c7 01       	movw	r24, r14
    1424:	b6 01       	movw	r22, r12
    1426:	0e 94 6b 10 	call	0x20d6	; 0x20d6 <__addsf3>
    142a:	d6 2e       	mov	r13, r22
    142c:	c7 2e       	mov	r12, r23
    142e:	b8 2e       	mov	r11, r24
    1430:	a9 2e       	mov	r10, r25
	//Bewegungsfreiheit als Anschlagsbremse einschränken: MIN_MAX_PULSE
	if(pulswidth >= SERVO_const[(s_nr-1)][4])
    1432:	f8 01       	movw	r30, r16
    1434:	60 85       	ldd	r22, Z+8	; 0x08
    1436:	71 85       	ldd	r23, Z+9	; 0x09
    1438:	80 e0       	ldi	r24, 0x00	; 0
    143a:	90 e0       	ldi	r25, 0x00	; 0
    143c:	0e 94 82 11 	call	0x2304	; 0x2304 <__floatunsisf>
    1440:	16 2f       	mov	r17, r22
    1442:	07 2f       	mov	r16, r23
    1444:	f8 2e       	mov	r15, r24
    1446:	e9 2e       	mov	r14, r25
    1448:	26 2f       	mov	r18, r22
    144a:	37 2f       	mov	r19, r23
    144c:	48 2f       	mov	r20, r24
    144e:	59 2f       	mov	r21, r25
    1450:	6d 2d       	mov	r22, r13
    1452:	7c 2d       	mov	r23, r12
    1454:	8b 2d       	mov	r24, r11
    1456:	9a 2d       	mov	r25, r10
    1458:	0e 94 ba 12 	call	0x2574	; 0x2574 <__gesf2>
    145c:	88 23       	and	r24, r24
    145e:	3c f0       	brlt	.+14     	; 0x146e <ang_to_puls+0xfc>
	{
		pulswidth = (double)SERVO_const[(s_nr-1)][4];
		//Info-LEDs: Gelb
		Led->led_g[(s_nr-1)] = 0;
    1460:	c2 0d       	add	r28, r2
    1462:	d3 1d       	adc	r29, r3
    1464:	18 82       	st	Y, r1
		Led->led_y[(s_nr-1)] = 1;
    1466:	81 e0       	ldi	r24, 0x01	; 1
    1468:	8d 83       	std	Y+5, r24	; 0x05
		Led->led_r[(s_nr-1)] = 0;
    146a:	1a 86       	std	Y+10, r1	; 0x0a
    146c:	35 c0       	rjmp	.+106    	; 0x14d8 <ang_to_puls+0x166>
	}
	else if(pulswidth <= SERVO_const[(s_nr-1)][3])
    146e:	ce 01       	movw	r24, r28
    1470:	88 0f       	add	r24, r24
    1472:	99 1f       	adc	r25, r25
    1474:	88 0f       	add	r24, r24
    1476:	99 1f       	adc	r25, r25
    1478:	88 0f       	add	r24, r24
    147a:	99 1f       	adc	r25, r25
    147c:	fe 01       	movw	r30, r28
    147e:	ee 0f       	add	r30, r30
    1480:	ff 1f       	adc	r31, r31
    1482:	e8 0f       	add	r30, r24
    1484:	f9 1f       	adc	r31, r25
    1486:	ea 5f       	subi	r30, 0xFA	; 250
    1488:	fe 4f       	sbci	r31, 0xFE	; 254
    148a:	66 81       	ldd	r22, Z+6	; 0x06
    148c:	77 81       	ldd	r23, Z+7	; 0x07
    148e:	80 e0       	ldi	r24, 0x00	; 0
    1490:	90 e0       	ldi	r25, 0x00	; 0
    1492:	0e 94 82 11 	call	0x2304	; 0x2304 <__floatunsisf>
    1496:	16 2f       	mov	r17, r22
    1498:	07 2f       	mov	r16, r23
    149a:	f8 2e       	mov	r15, r24
    149c:	e9 2e       	mov	r14, r25
    149e:	26 2f       	mov	r18, r22
    14a0:	37 2f       	mov	r19, r23
    14a2:	48 2f       	mov	r20, r24
    14a4:	59 2f       	mov	r21, r25
    14a6:	6d 2d       	mov	r22, r13
    14a8:	7c 2d       	mov	r23, r12
    14aa:	8b 2d       	mov	r24, r11
    14ac:	9a 2d       	mov	r25, r10
    14ae:	0e 94 d7 10 	call	0x21ae	; 0x21ae <__cmpsf2>
    14b2:	18 16       	cp	r1, r24
    14b4:	3c f0       	brlt	.+14     	; 0x14c4 <ang_to_puls+0x152>
	{
		pulswidth = (double)SERVO_const[(s_nr-1)][3];
		//Info-LEDs: Gelb
		Led->led_g[(s_nr-1)] = 0;
    14b6:	c2 0d       	add	r28, r2
    14b8:	d3 1d       	adc	r29, r3
    14ba:	18 82       	st	Y, r1
		Led->led_y[(s_nr-1)] = 1;
    14bc:	81 e0       	ldi	r24, 0x01	; 1
    14be:	8d 83       	std	Y+5, r24	; 0x05
		Led->led_r[(s_nr-1)] = 0;
    14c0:	1a 86       	std	Y+10, r1	; 0x0a
    14c2:	0a c0       	rjmp	.+20     	; 0x14d8 <ang_to_puls+0x166>
	}	
	else
	{
		//Info-LEDs: Grün
		Led->led_g[(s_nr-1)] = 1;
    14c4:	c2 0d       	add	r28, r2
    14c6:	d3 1d       	adc	r29, r3
    14c8:	81 e0       	ldi	r24, 0x01	; 1
    14ca:	88 83       	st	Y, r24
		Led->led_y[(s_nr-1)] = 0;
    14cc:	1d 82       	std	Y+5, r1	; 0x05
		Led->led_r[(s_nr-1)] = 0;	
    14ce:	1a 86       	std	Y+10, r1	; 0x0a
//Übergabe der Servonummer (1-5) und des Winkels [Rad]
uint16_t ang_to_puls(uint8_t s_nr, double ang, led *Led) 
{
	//Geradengleichung mit den Servo-Konstanten:
	//Puls y = ((Puls(0°)-Puls(-90°))/(Pi/2)) * Winkel x + Puls(0°)
    double pulswidth = ((((double)SERVO_const[(s_nr-1)][1] - SERVO_const[(s_nr-1)][2])/(PI/2)) * ang) + SERVO_const[(s_nr-1)][1];
    14d0:	1d 2d       	mov	r17, r13
    14d2:	0c 2d       	mov	r16, r12
    14d4:	fb 2c       	mov	r15, r11
    14d6:	ea 2c       	mov	r14, r10
		Led->led_g[(s_nr-1)] = 1;
		Led->led_y[(s_nr-1)] = 0;
		Led->led_r[(s_nr-1)] = 0;	
	}	
	//Errechnete Pulsweiten in µs müssen für den Eintrag in TCNT1 mit 2 multipliziert werden
	pulswidth *= 2.0;
    14d8:	21 2f       	mov	r18, r17
    14da:	30 2f       	mov	r19, r16
    14dc:	4f 2d       	mov	r20, r15
    14de:	5e 2d       	mov	r21, r14
    14e0:	61 2f       	mov	r22, r17
    14e2:	70 2f       	mov	r23, r16
    14e4:	8f 2d       	mov	r24, r15
    14e6:	9e 2d       	mov	r25, r14
    14e8:	0e 94 6b 10 	call	0x20d6	; 0x20d6 <__addsf3>
	//Pulsweite runden (Umwandlung in int)
	return (uint16_t)(pulswidth + 0.5);
    14ec:	20 e0       	ldi	r18, 0x00	; 0
    14ee:	30 e0       	ldi	r19, 0x00	; 0
    14f0:	40 e0       	ldi	r20, 0x00	; 0
    14f2:	5f e3       	ldi	r21, 0x3F	; 63
    14f4:	0e 94 6b 10 	call	0x20d6	; 0x20d6 <__addsf3>
    14f8:	0e 94 53 11 	call	0x22a6	; 0x22a6 <__fixunssfsi>
}
    14fc:	cb 01       	movw	r24, r22
    14fe:	df 91       	pop	r29
    1500:	cf 91       	pop	r28
    1502:	1f 91       	pop	r17
    1504:	0f 91       	pop	r16
    1506:	ff 90       	pop	r15
    1508:	ef 90       	pop	r14
    150a:	df 90       	pop	r13
    150c:	cf 90       	pop	r12
    150e:	bf 90       	pop	r11
    1510:	af 90       	pop	r10
    1512:	9f 90       	pop	r9
    1514:	8f 90       	pop	r8
    1516:	7f 90       	pop	r7
    1518:	6f 90       	pop	r6
    151a:	5f 90       	pop	r5
    151c:	4f 90       	pop	r4
    151e:	3f 90       	pop	r3
    1520:	2f 90       	pop	r2
    1522:	08 95       	ret

00001524 <set_pulse>:

//Pulslängen in Struct Pul speichern
//Der letzte Parameter x gibt an, ob Gelenkstellung 1 oder 2 verwendet werden soll
void set_pulse(ang *Ang, pul *Pul, uint8_t x, led *Led)
{
    1524:	df 92       	push	r13
    1526:	ef 92       	push	r14
    1528:	ff 92       	push	r15
    152a:	0f 93       	push	r16
    152c:	1f 93       	push	r17
    152e:	cf 93       	push	r28
    1530:	df 93       	push	r29
    1532:	7c 01       	movw	r14, r24
    1534:	eb 01       	movw	r28, r22
    1536:	d4 2e       	mov	r13, r20
    1538:	89 01       	movw	r16, r18
	Pul->pul_1 = ang_to_puls(1, Ang->Phi_1, Led);
    153a:	fc 01       	movw	r30, r24
    153c:	40 81       	ld	r20, Z
    153e:	51 81       	ldd	r21, Z+1	; 0x01
    1540:	62 81       	ldd	r22, Z+2	; 0x02
    1542:	73 81       	ldd	r23, Z+3	; 0x03
    1544:	81 e0       	ldi	r24, 0x01	; 1
    1546:	0e 94 b9 09 	call	0x1372	; 0x1372 <ang_to_puls>
    154a:	99 83       	std	Y+1, r25	; 0x01
    154c:	88 83       	st	Y, r24
	if(x == 1)
    154e:	f1 e0       	ldi	r31, 0x01	; 1
    1550:	df 12       	cpse	r13, r31
    1552:	17 c0       	rjmp	.+46     	; 0x1582 <set_pulse+0x5e>
	{
		Pul->pul_2 = ang_to_puls(2, Ang->Phi_21, Led);
    1554:	f7 01       	movw	r30, r14
    1556:	44 81       	ldd	r20, Z+4	; 0x04
    1558:	55 81       	ldd	r21, Z+5	; 0x05
    155a:	66 81       	ldd	r22, Z+6	; 0x06
    155c:	77 81       	ldd	r23, Z+7	; 0x07
    155e:	98 01       	movw	r18, r16
    1560:	82 e0       	ldi	r24, 0x02	; 2
    1562:	0e 94 b9 09 	call	0x1372	; 0x1372 <ang_to_puls>
    1566:	9b 83       	std	Y+3, r25	; 0x03
    1568:	8a 83       	std	Y+2, r24	; 0x02
		Pul->pul_3 = ang_to_puls(3, Ang->Phi_31, Led);
    156a:	f7 01       	movw	r30, r14
    156c:	44 85       	ldd	r20, Z+12	; 0x0c
    156e:	55 85       	ldd	r21, Z+13	; 0x0d
    1570:	66 85       	ldd	r22, Z+14	; 0x0e
    1572:	77 85       	ldd	r23, Z+15	; 0x0f
    1574:	98 01       	movw	r18, r16
    1576:	83 e0       	ldi	r24, 0x03	; 3
    1578:	0e 94 b9 09 	call	0x1372	; 0x1372 <ang_to_puls>
    157c:	9d 83       	std	Y+5, r25	; 0x05
    157e:	8c 83       	std	Y+4, r24	; 0x04
    1580:	16 c0       	rjmp	.+44     	; 0x15ae <set_pulse+0x8a>
	}
	else
	{
		Pul->pul_2 = ang_to_puls(2, Ang->Phi_22, Led);
    1582:	f7 01       	movw	r30, r14
    1584:	40 85       	ldd	r20, Z+8	; 0x08
    1586:	51 85       	ldd	r21, Z+9	; 0x09
    1588:	62 85       	ldd	r22, Z+10	; 0x0a
    158a:	73 85       	ldd	r23, Z+11	; 0x0b
    158c:	98 01       	movw	r18, r16
    158e:	82 e0       	ldi	r24, 0x02	; 2
    1590:	0e 94 b9 09 	call	0x1372	; 0x1372 <ang_to_puls>
    1594:	9b 83       	std	Y+3, r25	; 0x03
    1596:	8a 83       	std	Y+2, r24	; 0x02
		Pul->pul_3 = ang_to_puls(3, Ang->Phi_32, Led);
    1598:	f7 01       	movw	r30, r14
    159a:	40 89       	ldd	r20, Z+16	; 0x10
    159c:	51 89       	ldd	r21, Z+17	; 0x11
    159e:	62 89       	ldd	r22, Z+18	; 0x12
    15a0:	73 89       	ldd	r23, Z+19	; 0x13
    15a2:	98 01       	movw	r18, r16
    15a4:	83 e0       	ldi	r24, 0x03	; 3
    15a6:	0e 94 b9 09 	call	0x1372	; 0x1372 <ang_to_puls>
    15aa:	9d 83       	std	Y+5, r25	; 0x05
    15ac:	8c 83       	std	Y+4, r24	; 0x04
	}	
	Pul->pul_4 = ang_to_puls(4, Ang->Phi_4, Led);
    15ae:	f7 01       	movw	r30, r14
    15b0:	44 89       	ldd	r20, Z+20	; 0x14
    15b2:	55 89       	ldd	r21, Z+21	; 0x15
    15b4:	66 89       	ldd	r22, Z+22	; 0x16
    15b6:	77 89       	ldd	r23, Z+23	; 0x17
    15b8:	98 01       	movw	r18, r16
    15ba:	84 e0       	ldi	r24, 0x04	; 4
    15bc:	0e 94 b9 09 	call	0x1372	; 0x1372 <ang_to_puls>
    15c0:	9f 83       	std	Y+7, r25	; 0x07
    15c2:	8e 83       	std	Y+6, r24	; 0x06
	Pul->pul_5 = ang_to_puls(5, Ang->Phi_5, Led);
    15c4:	f7 01       	movw	r30, r14
    15c6:	40 8d       	ldd	r20, Z+24	; 0x18
    15c8:	51 8d       	ldd	r21, Z+25	; 0x19
    15ca:	62 8d       	ldd	r22, Z+26	; 0x1a
    15cc:	73 8d       	ldd	r23, Z+27	; 0x1b
    15ce:	98 01       	movw	r18, r16
    15d0:	85 e0       	ldi	r24, 0x05	; 5
    15d2:	0e 94 b9 09 	call	0x1372	; 0x1372 <ang_to_puls>
    15d6:	99 87       	std	Y+9, r25	; 0x09
    15d8:	88 87       	std	Y+8, r24	; 0x08
}
    15da:	df 91       	pop	r29
    15dc:	cf 91       	pop	r28
    15de:	1f 91       	pop	r17
    15e0:	0f 91       	pop	r16
    15e2:	ff 90       	pop	r15
    15e4:	ef 90       	pop	r14
    15e6:	df 90       	pop	r13
    15e8:	08 95       	ret

000015ea <joy_to_pulse>:
//s_nr = Servonummer (1-5)
//s_puls_alt = aktueller Servopuls (µs*2)
//s_dir = gewünschte Servorichtung (1,0)
//led *Led = Referenz zum Struct für die Info-LEDs
uint16_t joy_to_pulse(uint16_t j_val, uint8_t s_nr, uint16_t s_puls_alt, uint8_t s_dir, led *Led)
{
    15ea:	ef 92       	push	r14
    15ec:	ff 92       	push	r15
    15ee:	0f 93       	push	r16
    15f0:	1f 93       	push	r17
    15f2:	cf 93       	push	r28
    15f4:	df 93       	push	r29
    15f6:	f6 2e       	mov	r15, r22
    15f8:	ea 01       	movw	r28, r20
    15fa:	e2 2e       	mov	r14, r18
	//Rückgabewert
	uint16_t s_puls_neu;
	//Die Pulsänderung über die Joystickeingabe berechnen
	uint16_t dpulse;
	if(j_val > (JOY_mid + JOY_dz))
    15fc:	20 91 04 01 	lds	r18, 0x0104	; 0x800104 <JOY_dz>
    1600:	30 e0       	ldi	r19, 0x00	; 0
    1602:	40 91 02 01 	lds	r20, 0x0102	; 0x800102 <JOY_mid>
    1606:	50 91 03 01 	lds	r21, 0x0103	; 0x800103 <JOY_mid+0x1>
    160a:	b9 01       	movw	r22, r18
    160c:	64 0f       	add	r22, r20
    160e:	75 1f       	adc	r23, r21
    1610:	68 17       	cp	r22, r24
    1612:	79 07       	cpc	r23, r25
    1614:	e0 f4       	brcc	.+56     	; 0x164e <joy_to_pulse+0x64>
	{
		//Quadratische Funktion, da eine lineare Funktion zu schnell zu einer hohen Servogeschwindigkeit führt
		//Die höchste Pulsänderung sollte bei ca 40 liegen
		dpulse = pow(((j_val - JOY_mid) / JOY_div), 2);
    1616:	84 1b       	sub	r24, r20
    1618:	95 0b       	sbc	r25, r21
    161a:	60 91 01 01 	lds	r22, 0x0101	; 0x800101 <JOY_div>
    161e:	70 e0       	ldi	r23, 0x00	; 0
    1620:	0e 94 f8 14 	call	0x29f0	; 0x29f0 <__udivmodhi4>
    1624:	80 e0       	ldi	r24, 0x00	; 0
    1626:	90 e0       	ldi	r25, 0x00	; 0
    1628:	0e 94 82 11 	call	0x2304	; 0x2304 <__floatunsisf>
    162c:	20 e0       	ldi	r18, 0x00	; 0
    162e:	30 e0       	ldi	r19, 0x00	; 0
    1630:	40 e0       	ldi	r20, 0x00	; 0
    1632:	50 e4       	ldi	r21, 0x40	; 64
    1634:	0e 94 2c 13 	call	0x2658	; 0x2658 <pow>
    1638:	0e 94 53 11 	call	0x22a6	; 0x22a6 <__fixunssfsi>
		//Die Pulsänderung zur aktuellen Pulsweite addieren bzw subtrahieren (Servorichtung)	
		if(s_dir == 1)
    163c:	21 e0       	ldi	r18, 0x01	; 1
    163e:	e2 12       	cpse	r14, r18
    1640:	03 c0       	rjmp	.+6      	; 0x1648 <joy_to_pulse+0x5e>
		{s_puls_neu = s_puls_alt + dpulse;}
    1642:	c6 0f       	add	r28, r22
    1644:	d7 1f       	adc	r29, r23
    1646:	26 c0       	rjmp	.+76     	; 0x1694 <joy_to_pulse+0xaa>
		else
		{s_puls_neu = s_puls_alt - dpulse;}
    1648:	c6 1b       	sub	r28, r22
    164a:	d7 0b       	sbc	r29, r23
    164c:	23 c0       	rjmp	.+70     	; 0x1694 <joy_to_pulse+0xaa>
	}
	else if(j_val < (JOY_mid - JOY_dz))
    164e:	ba 01       	movw	r22, r20
    1650:	62 1b       	sub	r22, r18
    1652:	73 0b       	sbc	r23, r19
    1654:	86 17       	cp	r24, r22
    1656:	97 07       	cpc	r25, r23
    1658:	e8 f4       	brcc	.+58     	; 0x1694 <joy_to_pulse+0xaa>
	{
		dpulse = pow(((JOY_mid - j_val) / JOY_div), 2);
    165a:	9a 01       	movw	r18, r20
    165c:	28 1b       	sub	r18, r24
    165e:	39 0b       	sbc	r19, r25
    1660:	c9 01       	movw	r24, r18
    1662:	60 91 01 01 	lds	r22, 0x0101	; 0x800101 <JOY_div>
    1666:	70 e0       	ldi	r23, 0x00	; 0
    1668:	0e 94 f8 14 	call	0x29f0	; 0x29f0 <__udivmodhi4>
    166c:	80 e0       	ldi	r24, 0x00	; 0
    166e:	90 e0       	ldi	r25, 0x00	; 0
    1670:	0e 94 82 11 	call	0x2304	; 0x2304 <__floatunsisf>
    1674:	20 e0       	ldi	r18, 0x00	; 0
    1676:	30 e0       	ldi	r19, 0x00	; 0
    1678:	40 e0       	ldi	r20, 0x00	; 0
    167a:	50 e4       	ldi	r21, 0x40	; 64
    167c:	0e 94 2c 13 	call	0x2658	; 0x2658 <pow>
    1680:	0e 94 53 11 	call	0x22a6	; 0x22a6 <__fixunssfsi>
		//Die Pulsänderung zur aktuellen Pulsweite addieren bzw subtrahieren (Servorichtung)
		if(s_dir == 1)
    1684:	31 e0       	ldi	r19, 0x01	; 1
    1686:	e3 12       	cpse	r14, r19
    1688:	03 c0       	rjmp	.+6      	; 0x1690 <joy_to_pulse+0xa6>
		{s_puls_neu = s_puls_alt - dpulse;}
    168a:	c6 1b       	sub	r28, r22
    168c:	d7 0b       	sbc	r29, r23
    168e:	02 c0       	rjmp	.+4      	; 0x1694 <joy_to_pulse+0xaa>
		else
		{s_puls_neu = s_puls_alt + dpulse;}
    1690:	c6 0f       	add	r28, r22
    1692:	d7 1f       	adc	r29, r23
	{
		s_puls_neu = s_puls_alt;	
	}	
	//Die Bewegungsfreiheit der Servos einschränken
	//und Info-LEDs setzen (Servoanschlag)
	if(s_puls_neu >= (SERVO_const[(s_nr-1)][4]*2))
    1694:	6f 2d       	mov	r22, r15
    1696:	70 e0       	ldi	r23, 0x00	; 0
    1698:	61 50       	subi	r22, 0x01	; 1
    169a:	71 09       	sbc	r23, r1
    169c:	fb 01       	movw	r30, r22
    169e:	ee 0f       	add	r30, r30
    16a0:	ff 1f       	adc	r31, r31
    16a2:	cb 01       	movw	r24, r22
    16a4:	88 0f       	add	r24, r24
    16a6:	99 1f       	adc	r25, r25
    16a8:	88 0f       	add	r24, r24
    16aa:	99 1f       	adc	r25, r25
    16ac:	88 0f       	add	r24, r24
    16ae:	99 1f       	adc	r25, r25
    16b0:	e8 0f       	add	r30, r24
    16b2:	f9 1f       	adc	r31, r25
    16b4:	ea 5f       	subi	r30, 0xFA	; 250
    16b6:	fe 4f       	sbci	r31, 0xFE	; 254
    16b8:	80 85       	ldd	r24, Z+8	; 0x08
    16ba:	91 85       	ldd	r25, Z+9	; 0x09
    16bc:	88 0f       	add	r24, r24
    16be:	99 1f       	adc	r25, r25
    16c0:	c8 17       	cp	r28, r24
    16c2:	d9 07       	cpc	r29, r25
    16c4:	40 f0       	brcs	.+16     	; 0x16d6 <joy_to_pulse+0xec>
	{
		s_puls_neu = SERVO_const[(s_nr-1)][4]*2;
		//Info-LEDs: Gelb
		Led->led_g[(s_nr-1)] = 0;
    16c6:	f8 01       	movw	r30, r16
    16c8:	e6 0f       	add	r30, r22
    16ca:	f7 1f       	adc	r31, r23
    16cc:	10 82       	st	Z, r1
		Led->led_y[(s_nr-1)] = 1;
    16ce:	21 e0       	ldi	r18, 0x01	; 1
    16d0:	25 83       	std	Z+5, r18	; 0x05
		Led->led_r[(s_nr-1)] = 0;
    16d2:	12 86       	std	Z+10, r1	; 0x0a
    16d4:	25 c0       	rjmp	.+74     	; 0x1720 <joy_to_pulse+0x136>
	}
	else if(s_puls_neu <= (SERVO_const[(s_nr-1)][3]*2))
    16d6:	cb 01       	movw	r24, r22
    16d8:	88 0f       	add	r24, r24
    16da:	99 1f       	adc	r25, r25
    16dc:	88 0f       	add	r24, r24
    16de:	99 1f       	adc	r25, r25
    16e0:	88 0f       	add	r24, r24
    16e2:	99 1f       	adc	r25, r25
    16e4:	fb 01       	movw	r30, r22
    16e6:	ee 0f       	add	r30, r30
    16e8:	ff 1f       	adc	r31, r31
    16ea:	e8 0f       	add	r30, r24
    16ec:	f9 1f       	adc	r31, r25
    16ee:	ea 5f       	subi	r30, 0xFA	; 250
    16f0:	fe 4f       	sbci	r31, 0xFE	; 254
    16f2:	86 81       	ldd	r24, Z+6	; 0x06
    16f4:	97 81       	ldd	r25, Z+7	; 0x07
    16f6:	88 0f       	add	r24, r24
    16f8:	99 1f       	adc	r25, r25
    16fa:	8c 17       	cp	r24, r28
    16fc:	9d 07       	cpc	r25, r29
    16fe:	40 f0       	brcs	.+16     	; 0x1710 <joy_to_pulse+0x126>
	{
		s_puls_neu = SERVO_const[(s_nr-1)][3]*2;
		//Info-LEDs: Gelb
		Led->led_g[(s_nr-1)] = 0;
    1700:	f8 01       	movw	r30, r16
    1702:	e6 0f       	add	r30, r22
    1704:	f7 1f       	adc	r31, r23
    1706:	10 82       	st	Z, r1
		Led->led_y[(s_nr-1)] = 1;
    1708:	21 e0       	ldi	r18, 0x01	; 1
    170a:	25 83       	std	Z+5, r18	; 0x05
		Led->led_r[(s_nr-1)] = 0;
    170c:	12 86       	std	Z+10, r1	; 0x0a
    170e:	08 c0       	rjmp	.+16     	; 0x1720 <joy_to_pulse+0x136>
	}
	else
	{
		//Info-LEDs: Grün
		Led->led_g[(s_nr-1)] = 1;
    1710:	f8 01       	movw	r30, r16
    1712:	e6 0f       	add	r30, r22
    1714:	f7 1f       	adc	r31, r23
    1716:	81 e0       	ldi	r24, 0x01	; 1
    1718:	80 83       	st	Z, r24
		Led->led_y[(s_nr-1)] = 0;
    171a:	15 82       	std	Z+5, r1	; 0x05
		Led->led_r[(s_nr-1)] = 0;		
    171c:	12 86       	std	Z+10, r1	; 0x0a
    171e:	ce 01       	movw	r24, r28
	}
	return s_puls_neu;
}
    1720:	df 91       	pop	r29
    1722:	cf 91       	pop	r28
    1724:	1f 91       	pop	r17
    1726:	0f 91       	pop	r16
    1728:	ff 90       	pop	r15
    172a:	ef 90       	pop	r14
    172c:	08 95       	ret

0000172e <reset_ang>:

//Gelenkwinkel auf die Neutralstellung setzen
void reset_ang(ang *Ang)
{
    172e:	fc 01       	movw	r30, r24
	Ang->Phi_1 = 0;	
    1730:	10 82       	st	Z, r1
    1732:	11 82       	std	Z+1, r1	; 0x01
    1734:	12 82       	std	Z+2, r1	; 0x02
    1736:	13 82       	std	Z+3, r1	; 0x03
	Ang->Phi_21 = 0;
    1738:	14 82       	std	Z+4, r1	; 0x04
    173a:	15 82       	std	Z+5, r1	; 0x05
    173c:	16 82       	std	Z+6, r1	; 0x06
    173e:	17 82       	std	Z+7, r1	; 0x07
	Ang->Phi_22 = 0;
    1740:	10 86       	std	Z+8, r1	; 0x08
    1742:	11 86       	std	Z+9, r1	; 0x09
    1744:	12 86       	std	Z+10, r1	; 0x0a
    1746:	13 86       	std	Z+11, r1	; 0x0b
	Ang->Phi_31 = 0;
    1748:	14 86       	std	Z+12, r1	; 0x0c
    174a:	15 86       	std	Z+13, r1	; 0x0d
    174c:	16 86       	std	Z+14, r1	; 0x0e
    174e:	17 86       	std	Z+15, r1	; 0x0f
	Ang->Phi_32 = 0;
    1750:	10 8a       	std	Z+16, r1	; 0x10
    1752:	11 8a       	std	Z+17, r1	; 0x11
    1754:	12 8a       	std	Z+18, r1	; 0x12
    1756:	13 8a       	std	Z+19, r1	; 0x13
	Ang->Phi_4 = 0;
    1758:	14 8a       	std	Z+20, r1	; 0x14
    175a:	15 8a       	std	Z+21, r1	; 0x15
    175c:	16 8a       	std	Z+22, r1	; 0x16
    175e:	17 8a       	std	Z+23, r1	; 0x17
	Ang->Phi_5 = 0;
    1760:	10 8e       	std	Z+24, r1	; 0x18
    1762:	11 8e       	std	Z+25, r1	; 0x19
    1764:	12 8e       	std	Z+26, r1	; 0x1a
    1766:	13 8e       	std	Z+27, r1	; 0x1b
    1768:	08 95       	ret

0000176a <reset_tcp>:
}

//TCP auf die Neutralstellung setzen
void reset_tcp(dot *TCP)
{
    176a:	cf 93       	push	r28
    176c:	df 93       	push	r29
    176e:	ec 01       	movw	r28, r24
	TCP->x = L_1+L_2;
    1770:	20 91 3c 01 	lds	r18, 0x013C	; 0x80013c <L_2>
    1774:	30 91 3d 01 	lds	r19, 0x013D	; 0x80013d <L_2+0x1>
    1778:	40 91 3e 01 	lds	r20, 0x013E	; 0x80013e <L_2+0x2>
    177c:	50 91 3f 01 	lds	r21, 0x013F	; 0x80013f <L_2+0x3>
    1780:	60 91 40 01 	lds	r22, 0x0140	; 0x800140 <L_1>
    1784:	70 91 41 01 	lds	r23, 0x0141	; 0x800141 <L_1+0x1>
    1788:	80 91 42 01 	lds	r24, 0x0142	; 0x800142 <L_1+0x2>
    178c:	90 91 43 01 	lds	r25, 0x0143	; 0x800143 <L_1+0x3>
    1790:	0e 94 6b 10 	call	0x20d6	; 0x20d6 <__addsf3>
    1794:	68 83       	st	Y, r22
    1796:	79 83       	std	Y+1, r23	; 0x01
    1798:	8a 83       	std	Y+2, r24	; 0x02
    179a:	9b 83       	std	Y+3, r25	; 0x03
	TCP->y = 0;	
    179c:	1c 82       	std	Y+4, r1	; 0x04
    179e:	1d 82       	std	Y+5, r1	; 0x05
    17a0:	1e 82       	std	Y+6, r1	; 0x06
    17a2:	1f 82       	std	Y+7, r1	; 0x07
	TCP->z = L_3;	
    17a4:	80 91 38 01 	lds	r24, 0x0138	; 0x800138 <L_3>
    17a8:	90 91 39 01 	lds	r25, 0x0139	; 0x800139 <L_3+0x1>
    17ac:	a0 91 3a 01 	lds	r26, 0x013A	; 0x80013a <L_3+0x2>
    17b0:	b0 91 3b 01 	lds	r27, 0x013B	; 0x80013b <L_3+0x3>
    17b4:	88 87       	std	Y+8, r24	; 0x08
    17b6:	99 87       	std	Y+9, r25	; 0x09
    17b8:	aa 87       	std	Y+10, r26	; 0x0a
    17ba:	bb 87       	std	Y+11, r27	; 0x0b
}
    17bc:	df 91       	pop	r29
    17be:	cf 91       	pop	r28
    17c0:	08 95       	ret

000017c2 <shiftr_init>:
//Funktionen für die Schieberegister (2xHC595)
//HC595 initialisieren
void shiftr_init()
{
	//DS, SH_CP und ST_CP Pins auf Output stellen
	HC595_DDR |= (1<<HC595_SH_CP_POS)|(1<<HC595_ST_CP_POS)|(1<<HC595_DS_POS);
    17c2:	8a b1       	in	r24, 0x0a	; 10
    17c4:	80 6e       	ori	r24, 0xE0	; 224
    17c6:	8a b9       	out	0x0a, r24	; 10
    17c8:	08 95       	ret

000017ca <shiftr_shift>:
}

//Puls auf Shift Clock Pin (SH_CP oder SRCLK)
void shiftr_shift()
{
	HC595_PORT |= (1<<HC595_SH_CP_POS);		//HIGH
    17ca:	8b b1       	in	r24, 0x0b	; 11
    17cc:	80 68       	ori	r24, 0x80	; 128
    17ce:	8b b9       	out	0x0b, r24	; 11
	HC595_PORT &= (~(1<<HC595_SH_CP_POS));	//LOW
    17d0:	8b b1       	in	r24, 0x0b	; 11
    17d2:	8f 77       	andi	r24, 0x7F	; 127
    17d4:	8b b9       	out	0x0b, r24	; 11
    17d6:	08 95       	ret

000017d8 <shiftr_latch>:
}

//Puls auf Store Clock Pin (ST_CP oder RCLK)
void shiftr_latch()
{
	HC595_PORT |= (1<<HC595_ST_CP_POS);		//HIGH
    17d8:	8b b1       	in	r24, 0x0b	; 11
    17da:	80 64       	ori	r24, 0x40	; 64
    17dc:	8b b9       	out	0x0b, r24	; 11
	//_delay_loop_1(1);
	HC595_PORT &= (~(1<<HC595_ST_CP_POS));	//LOW
    17de:	8b b1       	in	r24, 0x0b	; 11
    17e0:	8f 7b       	andi	r24, 0xBF	; 191
    17e2:	8b b9       	out	0x0b, r24	; 11
    17e4:	08 95       	ret

000017e6 <shiftr_data>:

//Zustände der Info-LEDs aus dem Struct "Led" Bit für Bit in uint16_t Variable schreiben
//Auffüllen von Rechts
//Bit 16 (links): ungenutzt, immer 0
uint16_t shiftr_data(led *Led)
{
    17e6:	fc 01       	movw	r30, r24
	uint16_t data = 0b0000000000000000;

	//Servo 1: grün
	if(Led->led_g[0] == 1) {data |= (1<<0);}
    17e8:	80 81       	ld	r24, Z
    17ea:	81 30       	cpi	r24, 0x01	; 1
    17ec:	19 f0       	breq	.+6      	; 0x17f4 <shiftr_data+0xe>
//Zustände der Info-LEDs aus dem Struct "Led" Bit für Bit in uint16_t Variable schreiben
//Auffüllen von Rechts
//Bit 16 (links): ungenutzt, immer 0
uint16_t shiftr_data(led *Led)
{
	uint16_t data = 0b0000000000000000;
    17ee:	80 e0       	ldi	r24, 0x00	; 0
    17f0:	90 e0       	ldi	r25, 0x00	; 0
    17f2:	02 c0       	rjmp	.+4      	; 0x17f8 <shiftr_data+0x12>

	//Servo 1: grün
	if(Led->led_g[0] == 1) {data |= (1<<0);}
    17f4:	81 e0       	ldi	r24, 0x01	; 1
    17f6:	90 e0       	ldi	r25, 0x00	; 0
	//Servo 1: orange
	if(Led->led_y[0] == 1) {data |= (1<<1);}
    17f8:	25 81       	ldd	r18, Z+5	; 0x05
    17fa:	21 30       	cpi	r18, 0x01	; 1
    17fc:	09 f4       	brne	.+2      	; 0x1800 <shiftr_data+0x1a>
    17fe:	82 60       	ori	r24, 0x02	; 2
	//Servo 1: rot
	if(Led->led_r[0] == 1) {data |= (1<<2);}
    1800:	22 85       	ldd	r18, Z+10	; 0x0a
    1802:	21 30       	cpi	r18, 0x01	; 1
    1804:	09 f4       	brne	.+2      	; 0x1808 <shiftr_data+0x22>
    1806:	84 60       	ori	r24, 0x04	; 4
	//Servo 2: grün
	if(Led->led_g[1] == 1) {data |= (1<<3);}
    1808:	21 81       	ldd	r18, Z+1	; 0x01
    180a:	21 30       	cpi	r18, 0x01	; 1
    180c:	09 f4       	brne	.+2      	; 0x1810 <shiftr_data+0x2a>
    180e:	88 60       	ori	r24, 0x08	; 8
	//Servo 2: orange
	if(Led->led_y[1] == 1) {data |= (1<<4);}
    1810:	26 81       	ldd	r18, Z+6	; 0x06
    1812:	21 30       	cpi	r18, 0x01	; 1
    1814:	09 f4       	brne	.+2      	; 0x1818 <shiftr_data+0x32>
    1816:	80 61       	ori	r24, 0x10	; 16
	//Servo 2: rot
	if(Led->led_r[1] == 1) {data |= (1<<5);}
    1818:	23 85       	ldd	r18, Z+11	; 0x0b
    181a:	21 30       	cpi	r18, 0x01	; 1
    181c:	09 f4       	brne	.+2      	; 0x1820 <shiftr_data+0x3a>
    181e:	80 62       	ori	r24, 0x20	; 32
	//Servo 3: grün
	if(Led->led_g[2] == 1) {data |= (1<<6);}
    1820:	22 81       	ldd	r18, Z+2	; 0x02
    1822:	21 30       	cpi	r18, 0x01	; 1
    1824:	09 f4       	brne	.+2      	; 0x1828 <shiftr_data+0x42>
    1826:	80 64       	ori	r24, 0x40	; 64
	//Servo 3: orange
	if(Led->led_y[2] == 1) {data |= (1<<7);}
    1828:	27 81       	ldd	r18, Z+7	; 0x07
    182a:	21 30       	cpi	r18, 0x01	; 1
    182c:	09 f4       	brne	.+2      	; 0x1830 <shiftr_data+0x4a>
    182e:	80 68       	ori	r24, 0x80	; 128
	//Servo 3: rot
	if(Led->led_r[2] == 1) {data |= (1<<8);}
    1830:	24 85       	ldd	r18, Z+12	; 0x0c
    1832:	21 30       	cpi	r18, 0x01	; 1
    1834:	09 f4       	brne	.+2      	; 0x1838 <shiftr_data+0x52>
    1836:	91 60       	ori	r25, 0x01	; 1
	//Servo 4: grün
	if(Led->led_g[3] == 1) {data |= (1<<9);}
    1838:	23 81       	ldd	r18, Z+3	; 0x03
    183a:	21 30       	cpi	r18, 0x01	; 1
    183c:	09 f4       	brne	.+2      	; 0x1840 <shiftr_data+0x5a>
    183e:	92 60       	ori	r25, 0x02	; 2
	//Servo 4: orange
	if(Led->led_y[3] == 1) {data |= (1<<10);}
    1840:	20 85       	ldd	r18, Z+8	; 0x08
    1842:	21 30       	cpi	r18, 0x01	; 1
    1844:	09 f4       	brne	.+2      	; 0x1848 <shiftr_data+0x62>
    1846:	94 60       	ori	r25, 0x04	; 4
	//Servo 4: rot
	if(Led->led_r[3] == 1) {data |= (1<<11);}
    1848:	25 85       	ldd	r18, Z+13	; 0x0d
    184a:	21 30       	cpi	r18, 0x01	; 1
    184c:	09 f4       	brne	.+2      	; 0x1850 <shiftr_data+0x6a>
    184e:	98 60       	ori	r25, 0x08	; 8
	//Servo 5: grün
	if(Led->led_g[4] == 1) {data |= (1<<12);}
    1850:	24 81       	ldd	r18, Z+4	; 0x04
    1852:	21 30       	cpi	r18, 0x01	; 1
    1854:	09 f4       	brne	.+2      	; 0x1858 <shiftr_data+0x72>
    1856:	90 61       	ori	r25, 0x10	; 16
	//Servo 5: orange
	if(Led->led_y[4] == 1) {data |= (1<<13);}
    1858:	21 85       	ldd	r18, Z+9	; 0x09
    185a:	21 30       	cpi	r18, 0x01	; 1
    185c:	09 f4       	brne	.+2      	; 0x1860 <shiftr_data+0x7a>
    185e:	90 62       	ori	r25, 0x20	; 32
	//Servo 5: rot
	if(Led->led_r[4] == 1) {data |= (1<<14);}
    1860:	26 85       	ldd	r18, Z+14	; 0x0e
    1862:	21 30       	cpi	r18, 0x01	; 1
    1864:	09 f4       	brne	.+2      	; 0x1868 <shiftr_data+0x82>
    1866:	90 64       	ori	r25, 0x40	; 64

	return data;
}
    1868:	08 95       	ret

0000186a <shiftr_out>:

//Funktion gibt den Zustand der Info-LEDs über zwei Schieberegister (= 16 Byte) aus
//Da nur 15 LEDs vorhanden sind, ist das letzte Byte immer 0
void shiftr_out(uint16_t data)
{
    186a:	0f 93       	push	r16
    186c:	1f 93       	push	r17
    186e:	cf 93       	push	r28
    1870:	df 93       	push	r29
    1872:	8c 01       	movw	r16, r24
	//Low level macros um Data Pin (DS) auf HIGH oder LOW zu setzen
	//#define HC595DataHigh() (HC595_PORT |= (1<<HC595_DS_POS))
	//#define HC595DataLow() (HC595_PORT &= (~(1<<HC595_DS_POS)))

	//Jeden der 15 Bits seriell senden (MSB zuerst)
	for(uint16_t i=0; i<SHIFTR_BITS; i++)
    1874:	c0 e0       	ldi	r28, 0x00	; 0
    1876:	d0 e0       	ldi	r29, 0x00	; 0
    1878:	0e c0       	rjmp	.+28     	; 0x1896 <shiftr_out+0x2c>
	{
		//Output über DS je nach Wert des MSB (HIGH oder LOW)
		if(data & 0b1000000000000000)
    187a:	11 23       	and	r17, r17
    187c:	24 f4       	brge	.+8      	; 0x1886 <shiftr_out+0x1c>
		{
			//MSB is1 1: output HIGH
			HC595_PORT |= (1<<HC595_DS_POS);		//HC595DataHigh();
    187e:	8b b1       	in	r24, 0x0b	; 11
    1880:	80 62       	ori	r24, 0x20	; 32
    1882:	8b b9       	out	0x0b, r24	; 11
    1884:	03 c0       	rjmp	.+6      	; 0x188c <shiftr_out+0x22>
		}
		else
		{
			//MSB ist 0: output LOW
			HC595_PORT &= (~(1<<HC595_DS_POS));		//HC595DataLow();
    1886:	8b b1       	in	r24, 0x0b	; 11
    1888:	8f 7d       	andi	r24, 0xDF	; 223
    188a:	8b b9       	out	0x0b, r24	; 11
		}
		//Puls auf Shift-Clock (SH_CP)
		shiftr_shift();
    188c:	0e 94 e5 0b 	call	0x17ca	; 0x17ca <shiftr_shift>
		//Nächstes Bit auf die MSB Position bringen
		data = (data<<1);
    1890:	00 0f       	add	r16, r16
    1892:	11 1f       	adc	r17, r17
	//Low level macros um Data Pin (DS) auf HIGH oder LOW zu setzen
	//#define HC595DataHigh() (HC595_PORT |= (1<<HC595_DS_POS))
	//#define HC595DataLow() (HC595_PORT &= (~(1<<HC595_DS_POS)))

	//Jeden der 15 Bits seriell senden (MSB zuerst)
	for(uint16_t i=0; i<SHIFTR_BITS; i++)
    1894:	21 96       	adiw	r28, 0x01	; 1
    1896:	c0 31       	cpi	r28, 0x10	; 16
    1898:	d1 05       	cpc	r29, r1
    189a:	78 f3       	brcs	.-34     	; 0x187a <shiftr_out+0x10>
		//Nächstes Bit auf die MSB Position bringen
		data = (data<<1);
	}
	//Alle 15 Bits ins Schieberegister geladen
	//Puls auf Store Clock (ST_CP) -> Output
	shiftr_latch();
    189c:	0e 94 ec 0b 	call	0x17d8	; 0x17d8 <shiftr_latch>
}
    18a0:	df 91       	pop	r29
    18a2:	cf 91       	pop	r28
    18a4:	1f 91       	pop	r17
    18a6:	0f 91       	pop	r16
    18a8:	08 95       	ret

000018aa <main>:
//////////
// Main //
//////////

int main(void)
{	
    18aa:	cf 93       	push	r28
    18ac:	df 93       	push	r29
    18ae:	cd b7       	in	r28, 0x3d	; 61
    18b0:	de b7       	in	r29, 0x3e	; 62
    18b2:	c8 59       	subi	r28, 0x98	; 152
    18b4:	d1 40       	sbci	r29, 0x01	; 1
    18b6:	0f b6       	in	r0, 0x3f	; 63
    18b8:	f8 94       	cli
    18ba:	de bf       	out	0x3e, r29	; 62
    18bc:	0f be       	out	0x3f, r0	; 63
    18be:	cd bf       	out	0x3d, r28	; 61
	//PWM-Signal (Timer 1) initialisieren
	pwm_init();	
    18c0:	0e 94 7a 01 	call	0x2f4	; 0x2f4 <pwm_init>
	//USART initialisieren
	usart_init();	
    18c4:	0e 94 f2 00 	call	0x1e4	; 0x1e4 <usart_init>
	//ADC für die Joysticks initialisieren
	adc_init();	
    18c8:	0e 94 8b 01 	call	0x316	; 0x316 <adc_init>
	//Timer 0 für die Abtastfrequenz der Joysticks und die Servogeschwindigkeit initialisieren
	ms_init();
    18cc:	0e 94 a7 01 	call	0x34e	; 0x34e <ms_init>
	//Schieberegister (2xHC595) initialisieren
	shiftr_init();
    18d0:	0e 94 e1 0b 	call	0x17c2	; 0x17c2 <shiftr_init>
	//Interrupts aktivieren
	sei();	
    18d4:	78 94       	sei
	
	//Gelenkwinkel und TCP auf Neutralstellung setzen
	reset_ang(&Ang);
    18d6:	88 e2       	ldi	r24, 0x28	; 40
    18d8:	93 e0       	ldi	r25, 0x03	; 3
    18da:	0e 94 97 0b 	call	0x172e	; 0x172e <reset_ang>
	reset_tcp(&TCP);
    18de:	8b ea       	ldi	r24, 0xAB	; 171
    18e0:	93 e0       	ldi	r25, 0x03	; 3
    18e2:	0e 94 b5 0b 	call	0x176a	; 0x176a <reset_tcp>
	//Gelenkwinkel in Pulsweite (*2) umrechnen
	//und im Strut Pul speichern
	//Letzter Parameter gibt an, welche der zwei möglichen Gelenkkonfigurationen verwendet werden soll
	set_pulse(&Ang, &Pul, 1, &Led);
    18e6:	2d ec       	ldi	r18, 0xCD	; 205
    18e8:	33 e0       	ldi	r19, 0x03	; 3
    18ea:	41 e0       	ldi	r20, 0x01	; 1
    18ec:	67 eb       	ldi	r22, 0xB7	; 183
    18ee:	73 e0       	ldi	r23, 0x03	; 3
    18f0:	88 e2       	ldi	r24, 0x28	; 40
    18f2:	93 e0       	ldi	r25, 0x03	; 3
    18f4:	0e 94 92 0a 	call	0x1524	; 0x1524 <set_pulse>
	
	//Eingabeaufforderung
	//Bei folgender Art der String-Initialisierung wird das \0 vom Compiler automatisch angehängt
	char text1[] = "Koordinaten [mm] im Format: x,y,z eingeben:\n\r";	
    18f8:	8e e2       	ldi	r24, 0x2E	; 46
    18fa:	e8 e4       	ldi	r30, 0x48	; 72
    18fc:	f2 e0       	ldi	r31, 0x02	; 2
    18fe:	de 01       	movw	r26, r28
    1900:	11 96       	adiw	r26, 0x01	; 1
    1902:	01 90       	ld	r0, Z+
    1904:	0d 92       	st	X+, r0
    1906:	8a 95       	dec	r24
    1908:	e1 f7       	brne	.-8      	; 0x1902 <main+0x58>
	usart_send_strg(text1);	
    190a:	ce 01       	movw	r24, r28
    190c:	01 96       	adiw	r24, 0x01	; 1
    190e:	0e 94 05 01 	call	0x20a	; 0x20a <usart_send_strg>
		
		//Servo-Pins auf LOW setzen, wenn
		//1) der gewünschte Wert in TCNT1 erreicht ist (bestimmt Pulslänge)
		//2) der Pin auf HIGH gesetzt ist
		//3) die Pulslänge in dem Bereich liegt, wo das Umschalten nötig ist (500-2600 x2 ms)		
		if(TCNT1 >= 1000 && TCNT1 <= 5200)
    1912:	80 91 84 00 	lds	r24, 0x0084	; 0x800084 <__TEXT_REGION_LENGTH__+0x7f8084>
    1916:	90 91 85 00 	lds	r25, 0x0085	; 0x800085 <__TEXT_REGION_LENGTH__+0x7f8085>
    191a:	88 3e       	cpi	r24, 0xE8	; 232
    191c:	93 40       	sbci	r25, 0x03	; 3
    191e:	08 f4       	brcc	.+2      	; 0x1922 <main+0x78>
    1920:	b2 c0       	rjmp	.+356    	; 0x1a86 <main+0x1dc>
    1922:	80 91 84 00 	lds	r24, 0x0084	; 0x800084 <__TEXT_REGION_LENGTH__+0x7f8084>
    1926:	90 91 85 00 	lds	r25, 0x0085	; 0x800085 <__TEXT_REGION_LENGTH__+0x7f8085>
    192a:	81 35       	cpi	r24, 0x51	; 81
    192c:	94 41       	sbci	r25, 0x14	; 20
    192e:	08 f0       	brcs	.+2      	; 0x1932 <main+0x88>
    1930:	aa c0       	rjmp	.+340    	; 0x1a86 <main+0x1dc>
		{	
			//Pin B0: Servo 1 (Phi_1):
			if(TCNT1 >= Pul.pul_1 && bit_is_set(PORTB, SERVO_const[0][0]))
    1932:	20 91 84 00 	lds	r18, 0x0084	; 0x800084 <__TEXT_REGION_LENGTH__+0x7f8084>
    1936:	30 91 85 00 	lds	r19, 0x0085	; 0x800085 <__TEXT_REGION_LENGTH__+0x7f8085>
    193a:	80 91 b7 03 	lds	r24, 0x03B7	; 0x8003b7 <Pul>
    193e:	90 91 b8 03 	lds	r25, 0x03B8	; 0x8003b8 <Pul+0x1>
    1942:	28 17       	cp	r18, r24
    1944:	39 07       	cpc	r19, r25
    1946:	b8 f0       	brcs	.+46     	; 0x1976 <main+0xcc>
    1948:	85 b1       	in	r24, 0x05	; 5
    194a:	20 91 06 01 	lds	r18, 0x0106	; 0x800106 <SERVO_const>
    194e:	90 e0       	ldi	r25, 0x00	; 0
    1950:	02 2e       	mov	r0, r18
    1952:	02 c0       	rjmp	.+4      	; 0x1958 <main+0xae>
    1954:	95 95       	asr	r25
    1956:	87 95       	ror	r24
    1958:	0a 94       	dec	r0
    195a:	e2 f7       	brpl	.-8      	; 0x1954 <main+0xaa>
    195c:	80 ff       	sbrs	r24, 0
    195e:	0b c0       	rjmp	.+22     	; 0x1976 <main+0xcc>
			{
				PORTB &= ~(1<<SERVO_const[0][0]);
    1960:	35 b1       	in	r19, 0x05	; 5
    1962:	81 e0       	ldi	r24, 0x01	; 1
    1964:	90 e0       	ldi	r25, 0x00	; 0
    1966:	02 c0       	rjmp	.+4      	; 0x196c <main+0xc2>
    1968:	88 0f       	add	r24, r24
    196a:	99 1f       	adc	r25, r25
    196c:	2a 95       	dec	r18
    196e:	e2 f7       	brpl	.-8      	; 0x1968 <main+0xbe>
    1970:	80 95       	com	r24
    1972:	83 23       	and	r24, r19
    1974:	85 b9       	out	0x05, r24	; 5
			}
			//Pin B1: Servo 2 (Phi_2):
			if(TCNT1 >= Pul.pul_2 && bit_is_set(PORTB, SERVO_const[1][0]))
    1976:	20 91 84 00 	lds	r18, 0x0084	; 0x800084 <__TEXT_REGION_LENGTH__+0x7f8084>
    197a:	30 91 85 00 	lds	r19, 0x0085	; 0x800085 <__TEXT_REGION_LENGTH__+0x7f8085>
    197e:	80 91 b9 03 	lds	r24, 0x03B9	; 0x8003b9 <Pul+0x2>
    1982:	90 91 ba 03 	lds	r25, 0x03BA	; 0x8003ba <Pul+0x3>
    1986:	28 17       	cp	r18, r24
    1988:	39 07       	cpc	r19, r25
    198a:	b8 f0       	brcs	.+46     	; 0x19ba <main+0x110>
    198c:	85 b1       	in	r24, 0x05	; 5
    198e:	20 91 10 01 	lds	r18, 0x0110	; 0x800110 <SERVO_const+0xa>
    1992:	90 e0       	ldi	r25, 0x00	; 0
    1994:	02 2e       	mov	r0, r18
    1996:	02 c0       	rjmp	.+4      	; 0x199c <main+0xf2>
    1998:	95 95       	asr	r25
    199a:	87 95       	ror	r24
    199c:	0a 94       	dec	r0
    199e:	e2 f7       	brpl	.-8      	; 0x1998 <main+0xee>
    19a0:	80 ff       	sbrs	r24, 0
    19a2:	0b c0       	rjmp	.+22     	; 0x19ba <main+0x110>
			{
				PORTB &= ~(1<<SERVO_const[1][0]);
    19a4:	35 b1       	in	r19, 0x05	; 5
    19a6:	81 e0       	ldi	r24, 0x01	; 1
    19a8:	90 e0       	ldi	r25, 0x00	; 0
    19aa:	02 c0       	rjmp	.+4      	; 0x19b0 <main+0x106>
    19ac:	88 0f       	add	r24, r24
    19ae:	99 1f       	adc	r25, r25
    19b0:	2a 95       	dec	r18
    19b2:	e2 f7       	brpl	.-8      	; 0x19ac <main+0x102>
    19b4:	80 95       	com	r24
    19b6:	83 23       	and	r24, r19
    19b8:	85 b9       	out	0x05, r24	; 5
			}
			//Pin B2: Servo 3 (Phi_3):
			if(TCNT1 >= Pul.pul_3 && bit_is_set(PORTB, SERVO_const[2][0]))
    19ba:	20 91 84 00 	lds	r18, 0x0084	; 0x800084 <__TEXT_REGION_LENGTH__+0x7f8084>
    19be:	30 91 85 00 	lds	r19, 0x0085	; 0x800085 <__TEXT_REGION_LENGTH__+0x7f8085>
    19c2:	80 91 bb 03 	lds	r24, 0x03BB	; 0x8003bb <Pul+0x4>
    19c6:	90 91 bc 03 	lds	r25, 0x03BC	; 0x8003bc <Pul+0x5>
    19ca:	28 17       	cp	r18, r24
    19cc:	39 07       	cpc	r19, r25
    19ce:	b8 f0       	brcs	.+46     	; 0x19fe <main+0x154>
    19d0:	85 b1       	in	r24, 0x05	; 5
    19d2:	20 91 1a 01 	lds	r18, 0x011A	; 0x80011a <SERVO_const+0x14>
    19d6:	90 e0       	ldi	r25, 0x00	; 0
    19d8:	02 2e       	mov	r0, r18
    19da:	02 c0       	rjmp	.+4      	; 0x19e0 <main+0x136>
    19dc:	95 95       	asr	r25
    19de:	87 95       	ror	r24
    19e0:	0a 94       	dec	r0
    19e2:	e2 f7       	brpl	.-8      	; 0x19dc <main+0x132>
    19e4:	80 ff       	sbrs	r24, 0
    19e6:	0b c0       	rjmp	.+22     	; 0x19fe <main+0x154>
			{
				PORTB &= ~(1<<SERVO_const[2][0]);
    19e8:	35 b1       	in	r19, 0x05	; 5
    19ea:	81 e0       	ldi	r24, 0x01	; 1
    19ec:	90 e0       	ldi	r25, 0x00	; 0
    19ee:	02 c0       	rjmp	.+4      	; 0x19f4 <main+0x14a>
    19f0:	88 0f       	add	r24, r24
    19f2:	99 1f       	adc	r25, r25
    19f4:	2a 95       	dec	r18
    19f6:	e2 f7       	brpl	.-8      	; 0x19f0 <main+0x146>
    19f8:	80 95       	com	r24
    19fa:	83 23       	and	r24, r19
    19fc:	85 b9       	out	0x05, r24	; 5
			}	
			//Pin B3: Servo 4 (Phi_4):
			if(TCNT1 >= Pul.pul_4 && bit_is_set(PORTB, SERVO_const[3][0]))
    19fe:	20 91 84 00 	lds	r18, 0x0084	; 0x800084 <__TEXT_REGION_LENGTH__+0x7f8084>
    1a02:	30 91 85 00 	lds	r19, 0x0085	; 0x800085 <__TEXT_REGION_LENGTH__+0x7f8085>
    1a06:	80 91 bd 03 	lds	r24, 0x03BD	; 0x8003bd <Pul+0x6>
    1a0a:	90 91 be 03 	lds	r25, 0x03BE	; 0x8003be <Pul+0x7>
    1a0e:	28 17       	cp	r18, r24
    1a10:	39 07       	cpc	r19, r25
    1a12:	b8 f0       	brcs	.+46     	; 0x1a42 <main+0x198>
    1a14:	85 b1       	in	r24, 0x05	; 5
    1a16:	20 91 24 01 	lds	r18, 0x0124	; 0x800124 <SERVO_const+0x1e>
    1a1a:	90 e0       	ldi	r25, 0x00	; 0
    1a1c:	02 2e       	mov	r0, r18
    1a1e:	02 c0       	rjmp	.+4      	; 0x1a24 <main+0x17a>
    1a20:	95 95       	asr	r25
    1a22:	87 95       	ror	r24
    1a24:	0a 94       	dec	r0
    1a26:	e2 f7       	brpl	.-8      	; 0x1a20 <main+0x176>
    1a28:	80 ff       	sbrs	r24, 0
    1a2a:	0b c0       	rjmp	.+22     	; 0x1a42 <main+0x198>
			{
				PORTB &= ~(1<<SERVO_const[3][0]);
    1a2c:	35 b1       	in	r19, 0x05	; 5
    1a2e:	81 e0       	ldi	r24, 0x01	; 1
    1a30:	90 e0       	ldi	r25, 0x00	; 0
    1a32:	02 c0       	rjmp	.+4      	; 0x1a38 <main+0x18e>
    1a34:	88 0f       	add	r24, r24
    1a36:	99 1f       	adc	r25, r25
    1a38:	2a 95       	dec	r18
    1a3a:	e2 f7       	brpl	.-8      	; 0x1a34 <main+0x18a>
    1a3c:	80 95       	com	r24
    1a3e:	83 23       	and	r24, r19
    1a40:	85 b9       	out	0x05, r24	; 5
			}	
			//Pin B4: Servo 5 (Greifarm, Phi_5):
			if(TCNT1 >= Pul.pul_5 && bit_is_set(PORTB, SERVO_const[4][0]))
    1a42:	20 91 84 00 	lds	r18, 0x0084	; 0x800084 <__TEXT_REGION_LENGTH__+0x7f8084>
    1a46:	30 91 85 00 	lds	r19, 0x0085	; 0x800085 <__TEXT_REGION_LENGTH__+0x7f8085>
    1a4a:	80 91 bf 03 	lds	r24, 0x03BF	; 0x8003bf <Pul+0x8>
    1a4e:	90 91 c0 03 	lds	r25, 0x03C0	; 0x8003c0 <Pul+0x9>
    1a52:	28 17       	cp	r18, r24
    1a54:	39 07       	cpc	r19, r25
    1a56:	b8 f0       	brcs	.+46     	; 0x1a86 <main+0x1dc>
    1a58:	85 b1       	in	r24, 0x05	; 5
    1a5a:	20 91 2e 01 	lds	r18, 0x012E	; 0x80012e <SERVO_const+0x28>
    1a5e:	90 e0       	ldi	r25, 0x00	; 0
    1a60:	02 2e       	mov	r0, r18
    1a62:	02 c0       	rjmp	.+4      	; 0x1a68 <main+0x1be>
    1a64:	95 95       	asr	r25
    1a66:	87 95       	ror	r24
    1a68:	0a 94       	dec	r0
    1a6a:	e2 f7       	brpl	.-8      	; 0x1a64 <main+0x1ba>
    1a6c:	80 ff       	sbrs	r24, 0
    1a6e:	0b c0       	rjmp	.+22     	; 0x1a86 <main+0x1dc>
			{
				PORTB &= ~(1<<SERVO_const[4][0]);
    1a70:	35 b1       	in	r19, 0x05	; 5
    1a72:	81 e0       	ldi	r24, 0x01	; 1
    1a74:	90 e0       	ldi	r25, 0x00	; 0
    1a76:	02 c0       	rjmp	.+4      	; 0x1a7c <main+0x1d2>
    1a78:	88 0f       	add	r24, r24
    1a7a:	99 1f       	adc	r25, r25
    1a7c:	2a 95       	dec	r18
    1a7e:	e2 f7       	brpl	.-8      	; 0x1a78 <main+0x1ce>
    1a80:	80 95       	com	r24
    1a82:	83 23       	and	r24, r19
    1a84:	85 b9       	out	0x05, r24	; 5
			}	
		}
		
		//Anderer Code soll nur ausgeführt werden, wenn die Pulslänge außerhalb von 500-2600 (x2) ms liegt
		//und die Servoposition nicht gesetzt werden muss -> sorgt für bessere Geauigkeit beim PWM-Signal
		if(TCNT1 < 1000 || TCNT1 > 5200)
    1a86:	80 91 84 00 	lds	r24, 0x0084	; 0x800084 <__TEXT_REGION_LENGTH__+0x7f8084>
    1a8a:	90 91 85 00 	lds	r25, 0x0085	; 0x800085 <__TEXT_REGION_LENGTH__+0x7f8085>
    1a8e:	88 3e       	cpi	r24, 0xE8	; 232
    1a90:	93 40       	sbci	r25, 0x03	; 3
    1a92:	40 f0       	brcs	.+16     	; 0x1aa4 <main+0x1fa>
    1a94:	80 91 84 00 	lds	r24, 0x0084	; 0x800084 <__TEXT_REGION_LENGTH__+0x7f8084>
    1a98:	90 91 85 00 	lds	r25, 0x0085	; 0x800085 <__TEXT_REGION_LENGTH__+0x7f8085>
    1a9c:	81 35       	cpi	r24, 0x51	; 81
    1a9e:	94 41       	sbci	r25, 0x14	; 20
    1aa0:	08 f4       	brcc	.+2      	; 0x1aa4 <main+0x1fa>
    1aa2:	37 cf       	rjmp	.-402    	; 0x1912 <main+0x68>
			// Manueller Modus (Joysticks) //
			/////////////////////////////////

			//Alle x ms die Pulsweite erhöhen/erniedrigen
			//Das Delta der Erhöhung/Erniedrigung wird über die Joystickauslenkung bestimmt (Servogeschwindigkeit)
			if(Serv_ms_count >= SERVO_ms_refresh)
    1aa4:	90 91 44 03 	lds	r25, 0x0344	; 0x800344 <Serv_ms_count>
    1aa8:	80 91 05 01 	lds	r24, 0x0105	; 0x800105 <SERVO_ms_refresh>
    1aac:	98 17       	cp	r25, r24
    1aae:	08 f4       	brcc	.+2      	; 0x1ab2 <main+0x208>
    1ab0:	56 c0       	rjmp	.+172    	; 0x1b5e <main+0x2b4>
			{
				Pul.pul_1 = joy_to_pulse(adcJ.joy_1_x, 1, Pul.pul_1, 0, &Led);
    1ab2:	0f 2e       	mov	r0, r31
    1ab4:	fb e1       	ldi	r31, 0x1B	; 27
    1ab6:	cf 2e       	mov	r12, r31
    1ab8:	f3 e0       	ldi	r31, 0x03	; 3
    1aba:	df 2e       	mov	r13, r31
    1abc:	f0 2d       	mov	r31, r0
    1abe:	f6 01       	movw	r30, r12
    1ac0:	80 81       	ld	r24, Z
    1ac2:	91 81       	ldd	r25, Z+1	; 0x01
    1ac4:	0f 2e       	mov	r0, r31
    1ac6:	f7 eb       	ldi	r31, 0xB7	; 183
    1ac8:	ef 2e       	mov	r14, r31
    1aca:	f3 e0       	ldi	r31, 0x03	; 3
    1acc:	ff 2e       	mov	r15, r31
    1ace:	f0 2d       	mov	r31, r0
    1ad0:	f7 01       	movw	r30, r14
    1ad2:	40 81       	ld	r20, Z
    1ad4:	51 81       	ldd	r21, Z+1	; 0x01
    1ad6:	0d ec       	ldi	r16, 0xCD	; 205
    1ad8:	13 e0       	ldi	r17, 0x03	; 3
    1ada:	20 e0       	ldi	r18, 0x00	; 0
    1adc:	61 e0       	ldi	r22, 0x01	; 1
    1ade:	0e 94 f5 0a 	call	0x15ea	; 0x15ea <joy_to_pulse>
    1ae2:	f7 01       	movw	r30, r14
    1ae4:	91 83       	std	Z+1, r25	; 0x01
    1ae6:	80 83       	st	Z, r24
				Pul.pul_2 = joy_to_pulse(adcJ.joy_1_y, 2, Pul.pul_2, 1, &Led);
    1ae8:	f6 01       	movw	r30, r12
    1aea:	82 81       	ldd	r24, Z+2	; 0x02
    1aec:	93 81       	ldd	r25, Z+3	; 0x03
    1aee:	f7 01       	movw	r30, r14
    1af0:	42 81       	ldd	r20, Z+2	; 0x02
    1af2:	53 81       	ldd	r21, Z+3	; 0x03
    1af4:	21 e0       	ldi	r18, 0x01	; 1
    1af6:	62 e0       	ldi	r22, 0x02	; 2
    1af8:	0e 94 f5 0a 	call	0x15ea	; 0x15ea <joy_to_pulse>
    1afc:	f7 01       	movw	r30, r14
    1afe:	93 83       	std	Z+3, r25	; 0x03
    1b00:	82 83       	std	Z+2, r24	; 0x02
				Pul.pul_3 = joy_to_pulse(adcJ.joy_2_y, 3, Pul.pul_3, 0, &Led);
    1b02:	f6 01       	movw	r30, r12
    1b04:	86 81       	ldd	r24, Z+6	; 0x06
    1b06:	97 81       	ldd	r25, Z+7	; 0x07
    1b08:	f7 01       	movw	r30, r14
    1b0a:	44 81       	ldd	r20, Z+4	; 0x04
    1b0c:	55 81       	ldd	r21, Z+5	; 0x05
    1b0e:	20 e0       	ldi	r18, 0x00	; 0
    1b10:	63 e0       	ldi	r22, 0x03	; 3
    1b12:	0e 94 f5 0a 	call	0x15ea	; 0x15ea <joy_to_pulse>
    1b16:	f7 01       	movw	r30, r14
    1b18:	95 83       	std	Z+5, r25	; 0x05
    1b1a:	84 83       	std	Z+4, r24	; 0x04
				Pul.pul_4 = joy_to_pulse(adcJ.joy_2_x, 4, Pul.pul_4, 0, &Led);
    1b1c:	f6 01       	movw	r30, r12
    1b1e:	84 81       	ldd	r24, Z+4	; 0x04
    1b20:	95 81       	ldd	r25, Z+5	; 0x05
    1b22:	f7 01       	movw	r30, r14
    1b24:	46 81       	ldd	r20, Z+6	; 0x06
    1b26:	57 81       	ldd	r21, Z+7	; 0x07
    1b28:	20 e0       	ldi	r18, 0x00	; 0
    1b2a:	64 e0       	ldi	r22, 0x04	; 4
    1b2c:	0e 94 f5 0a 	call	0x15ea	; 0x15ea <joy_to_pulse>
    1b30:	f7 01       	movw	r30, r14
    1b32:	97 83       	std	Z+7, r25	; 0x07
    1b34:	86 83       	std	Z+6, r24	; 0x06
				Pul.pul_5 = joy_to_pulse(adcJ.joy_3_x, 5, Pul.pul_5, 0, &Led);
    1b36:	f6 01       	movw	r30, r12
    1b38:	80 85       	ldd	r24, Z+8	; 0x08
    1b3a:	91 85       	ldd	r25, Z+9	; 0x09
    1b3c:	f7 01       	movw	r30, r14
    1b3e:	40 85       	ldd	r20, Z+8	; 0x08
    1b40:	51 85       	ldd	r21, Z+9	; 0x09
    1b42:	20 e0       	ldi	r18, 0x00	; 0
    1b44:	65 e0       	ldi	r22, 0x05	; 5
    1b46:	0e 94 f5 0a 	call	0x15ea	; 0x15ea <joy_to_pulse>
    1b4a:	f7 01       	movw	r30, r14
    1b4c:	91 87       	std	Z+9, r25	; 0x09
    1b4e:	80 87       	std	Z+8, r24	; 0x08
				
				//Info-LEDs anzeigen
				shiftr_out(shiftr_data(&Led));
    1b50:	c8 01       	movw	r24, r16
    1b52:	0e 94 f3 0b 	call	0x17e6	; 0x17e6 <shiftr_data>
    1b56:	0e 94 35 0c 	call	0x186a	; 0x186a <shiftr_out>
				
				//Reset Counter
				Serv_ms_count = 0;				
    1b5a:	10 92 44 03 	sts	0x0344, r1	; 0x800344 <Serv_ms_count>
			}
			
			//Alle x ms die Joystick-Eingabe speichern
			if(Joy_ms_count >= JOY_ms_refresh)
    1b5e:	90 91 0e 03 	lds	r25, 0x030E	; 0x80030e <Joy_ms_count>
    1b62:	80 91 00 01 	lds	r24, 0x0100	; 0x800100 <JOY_ms_refresh>
    1b66:	98 17       	cp	r25, r24
    1b68:	10 f1       	brcs	.+68     	; 0x1bae <main+0x304>
				//Joysick-Mittelstellung bei 511
				//Joystick x-Achsen: links 0-511, rechts 512-1023
				//Joystick y-Achsen: oben 512-1023, unten 0-511
						
				//Joystick 1:
				adcJ.joy_1_x = adc_read(0);
    1b6a:	80 e0       	ldi	r24, 0x00	; 0
    1b6c:	0e 94 92 01 	call	0x324	; 0x324 <adc_read>
    1b70:	0b e1       	ldi	r16, 0x1B	; 27
    1b72:	13 e0       	ldi	r17, 0x03	; 3
    1b74:	f8 01       	movw	r30, r16
    1b76:	91 83       	std	Z+1, r25	; 0x01
    1b78:	80 83       	st	Z, r24
				adcJ.joy_1_y = adc_read(1);		
    1b7a:	81 e0       	ldi	r24, 0x01	; 1
    1b7c:	0e 94 92 01 	call	0x324	; 0x324 <adc_read>
    1b80:	f8 01       	movw	r30, r16
    1b82:	93 83       	std	Z+3, r25	; 0x03
    1b84:	82 83       	std	Z+2, r24	; 0x02
				//Joystick 2:
				adcJ.joy_2_x = adc_read(2);				
    1b86:	82 e0       	ldi	r24, 0x02	; 2
    1b88:	0e 94 92 01 	call	0x324	; 0x324 <adc_read>
    1b8c:	f8 01       	movw	r30, r16
    1b8e:	95 83       	std	Z+5, r25	; 0x05
    1b90:	84 83       	std	Z+4, r24	; 0x04
				adcJ.joy_2_y = adc_read(3);				
    1b92:	83 e0       	ldi	r24, 0x03	; 3
    1b94:	0e 94 92 01 	call	0x324	; 0x324 <adc_read>
    1b98:	f8 01       	movw	r30, r16
    1b9a:	97 83       	std	Z+7, r25	; 0x07
    1b9c:	86 83       	std	Z+6, r24	; 0x06
				//Joystick 3:
				adcJ.joy_3_x = adc_read(4);			
    1b9e:	84 e0       	ldi	r24, 0x04	; 4
    1ba0:	0e 94 92 01 	call	0x324	; 0x324 <adc_read>
    1ba4:	f8 01       	movw	r30, r16
    1ba6:	91 87       	std	Z+9, r25	; 0x09
    1ba8:	80 87       	std	Z+8, r24	; 0x08
				
				//Reset Counter
				Joy_ms_count = 0;	
    1baa:	10 92 0e 03 	sts	0x030E, r1	; 0x80030e <Joy_ms_count>
			///////////////////////////////////////
			// Automatischer Modus (Koordinaten) //
			///////////////////////////////////////
			
			//Wenn Koordinaten über USART erfolgreich eingelesen wurden
			if(usart_strg_compl == 1)
    1bae:	80 91 aa 03 	lds	r24, 0x03AA	; 0x8003aa <usart_strg_compl>
    1bb2:	81 30       	cpi	r24, 0x01	; 1
    1bb4:	09 f0       	breq	.+2      	; 0x1bb8 <main+0x30e>
    1bb6:	ad ce       	rjmp	.-678    	; 0x1912 <main+0x68>
			{
				//Parsen des Strings und setzen der TCP-Koordinaten
				pars_rx_strg(usart_rx_buffer, &TCP);
    1bb8:	6b ea       	ldi	r22, 0xAB	; 171
    1bba:	73 e0       	ldi	r23, 0x03	; 3
    1bbc:	85 e4       	ldi	r24, 0x45	; 69
    1bbe:	93 e0       	ldi	r25, 0x03	; 3
    1bc0:	0e 94 12 01 	call	0x224	; 0x224 <pars_rx_strg>
				//Ausgabe der Koordinaten
				char text2[60];
				sprintf(text2, "Eingegebene Koordinaten: x=%.2f, y=%.2f, z=%.2f\n\r", TCP.x ,TCP.y ,TCP.z);
    1bc4:	eb ea       	ldi	r30, 0xAB	; 171
    1bc6:	f3 e0       	ldi	r31, 0x03	; 3
    1bc8:	83 85       	ldd	r24, Z+11	; 0x0b
    1bca:	8f 93       	push	r24
    1bcc:	82 85       	ldd	r24, Z+10	; 0x0a
    1bce:	8f 93       	push	r24
    1bd0:	81 85       	ldd	r24, Z+9	; 0x09
    1bd2:	8f 93       	push	r24
    1bd4:	80 85       	ldd	r24, Z+8	; 0x08
    1bd6:	8f 93       	push	r24
    1bd8:	87 81       	ldd	r24, Z+7	; 0x07
    1bda:	8f 93       	push	r24
    1bdc:	86 81       	ldd	r24, Z+6	; 0x06
    1bde:	8f 93       	push	r24
    1be0:	85 81       	ldd	r24, Z+5	; 0x05
    1be2:	8f 93       	push	r24
    1be4:	84 81       	ldd	r24, Z+4	; 0x04
    1be6:	8f 93       	push	r24
    1be8:	83 81       	ldd	r24, Z+3	; 0x03
    1bea:	8f 93       	push	r24
    1bec:	82 81       	ldd	r24, Z+2	; 0x02
    1bee:	8f 93       	push	r24
    1bf0:	81 81       	ldd	r24, Z+1	; 0x01
    1bf2:	8f 93       	push	r24
    1bf4:	80 81       	ld	r24, Z
    1bf6:	8f 93       	push	r24
    1bf8:	88 e4       	ldi	r24, 0x48	; 72
    1bfa:	91 e0       	ldi	r25, 0x01	; 1
    1bfc:	9f 93       	push	r25
    1bfe:	8f 93       	push	r24
    1c00:	8e 01       	movw	r16, r28
    1c02:	05 5a       	subi	r16, 0xA5	; 165
    1c04:	1e 4f       	sbci	r17, 0xFE	; 254
    1c06:	1f 93       	push	r17
    1c08:	0f 93       	push	r16
    1c0a:	0e 94 3c 15 	call	0x2a78	; 0x2a78 <sprintf>
				usart_send_strg(text2);			
    1c0e:	c8 01       	movw	r24, r16
    1c10:	0e 94 05 01 	call	0x20a	; 0x20a <usart_send_strg>
				
				//Gelenkwinkel über inverse Kinematik berechnen
				if(!inv_kinematic(&TCP, &Ang))
    1c14:	68 e2       	ldi	r22, 0x28	; 40
    1c16:	73 e0       	ldi	r23, 0x03	; 3
    1c18:	8b ea       	ldi	r24, 0xAB	; 171
    1c1a:	93 e0       	ldi	r25, 0x03	; 3
    1c1c:	0e 94 f1 03 	call	0x7e2	; 0x7e2 <inv_kinematic>
    1c20:	0f b6       	in	r0, 0x3f	; 63
    1c22:	f8 94       	cli
    1c24:	de bf       	out	0x3e, r29	; 62
    1c26:	0f be       	out	0x3f, r0	; 63
    1c28:	cd bf       	out	0x3d, r28	; 61
    1c2a:	88 23       	and	r24, r24
    1c2c:	59 f0       	breq	.+22     	; 0x1c44 <main+0x39a>
    1c2e:	1b c0       	rjmp	.+54     	; 0x1c66 <main+0x3bc>
					//reset_tcp(&TCP);
					
					//Info-LEDs: Alle Rot
					for(uint8_t i=0; i<5; i++)
					{
						Led.led_g[i] = 0;
    1c30:	e8 2f       	mov	r30, r24
    1c32:	f0 e0       	ldi	r31, 0x00	; 0
    1c34:	e3 53       	subi	r30, 0x33	; 51
    1c36:	fc 4f       	sbci	r31, 0xFC	; 252
    1c38:	10 82       	st	Z, r1
						Led.led_y[i] = 0;
    1c3a:	15 82       	std	Z+5, r1	; 0x05
						Led.led_r[i] = 1;
    1c3c:	91 e0       	ldi	r25, 0x01	; 1
    1c3e:	92 87       	std	Z+10, r25	; 0x0a
					//Gelenkwinkel und TCP auf Neutralstellung setzen
					//reset_ang(&Ang);	
					//reset_tcp(&TCP);
					
					//Info-LEDs: Alle Rot
					for(uint8_t i=0; i<5; i++)
    1c40:	8f 5f       	subi	r24, 0xFF	; 255
    1c42:	01 c0       	rjmp	.+2      	; 0x1c46 <main+0x39c>
    1c44:	80 e0       	ldi	r24, 0x00	; 0
    1c46:	85 30       	cpi	r24, 0x05	; 5
    1c48:	98 f3       	brcs	.-26     	; 0x1c30 <main+0x386>
						Led.led_g[i] = 0;
						Led.led_y[i] = 0;
						Led.led_r[i] = 1;
					}
					//Warnmeldung senden
					char text3[] = "Berechnung der Gelenkwinkel nicht moeglich!\n\r";
    1c4a:	8e e2       	ldi	r24, 0x2E	; 46
    1c4c:	e6 e7       	ldi	r30, 0x76	; 118
    1c4e:	f2 e0       	ldi	r31, 0x02	; 2
    1c50:	de 01       	movw	r26, r28
    1c52:	9f 96       	adiw	r26, 0x2f	; 47
    1c54:	01 90       	ld	r0, Z+
    1c56:	0d 92       	st	X+, r0
    1c58:	8a 95       	dec	r24
    1c5a:	e1 f7       	brne	.-8      	; 0x1c54 <main+0x3aa>
					usart_send_strg(text3);
    1c5c:	ce 01       	movw	r24, r28
    1c5e:	8f 96       	adiw	r24, 0x2f	; 47
    1c60:	0e 94 05 01 	call	0x20a	; 0x20a <usart_send_strg>
    1c64:	be c1       	rjmp	.+892    	; 0x1fe2 <main+0x738>
				}
				else
				{
					//TCP über Vorwärtskinematik berechnen und mit ursprünglichen TCP vergleichen
					if(!fwd_kinematic(&Ang, &P_Zero, &TCP_calc, 1))
    1c66:	21 e0       	ldi	r18, 0x01	; 1
    1c68:	41 ec       	ldi	r20, 0xC1	; 193
    1c6a:	53 e0       	ldi	r21, 0x03	; 3
    1c6c:	6f e0       	ldi	r22, 0x0F	; 15
    1c6e:	73 e0       	ldi	r23, 0x03	; 3
    1c70:	88 e2       	ldi	r24, 0x28	; 40
    1c72:	93 e0       	ldi	r25, 0x03	; 3
    1c74:	0e 94 6a 06 	call	0xcd4	; 0xcd4 <fwd_kinematic>
    1c78:	88 23       	and	r24, r24
    1c7a:	59 f0       	breq	.+22     	; 0x1c92 <main+0x3e8>
    1c7c:	1b c0       	rjmp	.+54     	; 0x1cb4 <main+0x40a>
						//reset_tcp(&TCP);
						
						//Info-LEDs: Alle Rot
						for(uint8_t i=0; i<5; i++)
						{
							Led.led_g[i] = 0;
    1c7e:	e8 2f       	mov	r30, r24
    1c80:	f0 e0       	ldi	r31, 0x00	; 0
    1c82:	e3 53       	subi	r30, 0x33	; 51
    1c84:	fc 4f       	sbci	r31, 0xFC	; 252
    1c86:	10 82       	st	Z, r1
							Led.led_y[i] = 0;
    1c88:	15 82       	std	Z+5, r1	; 0x05
							Led.led_r[i] = 1;
    1c8a:	91 e0       	ldi	r25, 0x01	; 1
    1c8c:	92 87       	std	Z+10, r25	; 0x0a
						//Gelenkwinkel und TCP auf Neutralstellung setzen
						//reset_ang(&Ang);
						//reset_tcp(&TCP);
						
						//Info-LEDs: Alle Rot
						for(uint8_t i=0; i<5; i++)
    1c8e:	8f 5f       	subi	r24, 0xFF	; 255
    1c90:	01 c0       	rjmp	.+2      	; 0x1c94 <main+0x3ea>
    1c92:	80 e0       	ldi	r24, 0x00	; 0
    1c94:	85 30       	cpi	r24, 0x05	; 5
    1c96:	98 f3       	brcs	.-26     	; 0x1c7e <main+0x3d4>
							Led.led_g[i] = 0;
							Led.led_y[i] = 0;
							Led.led_r[i] = 1;
						}	
						//Warnmeldung senden
						char text4[] = "Berechnung der Vorwaertskinematik nicht moeglich!\n\r";
    1c98:	84 e3       	ldi	r24, 0x34	; 52
    1c9a:	e4 ea       	ldi	r30, 0xA4	; 164
    1c9c:	f2 e0       	ldi	r31, 0x02	; 2
    1c9e:	de 01       	movw	r26, r28
    1ca0:	9f 96       	adiw	r26, 0x2f	; 47
    1ca2:	01 90       	ld	r0, Z+
    1ca4:	0d 92       	st	X+, r0
    1ca6:	8a 95       	dec	r24
    1ca8:	e1 f7       	brne	.-8      	; 0x1ca2 <main+0x3f8>
						usart_send_strg(text4);
    1caa:	ce 01       	movw	r24, r28
    1cac:	8f 96       	adiw	r24, 0x2f	; 47
    1cae:	0e 94 05 01 	call	0x20a	; 0x20a <usart_send_strg>
    1cb2:	97 c1       	rjmp	.+814    	; 0x1fe2 <main+0x738>
					}
					else
					{
						//Vergleich mit Toleranz (0,01 mm)
						double tol = 0.01;
						if(TCP_calc.x < (TCP.x-tol) || TCP_calc.x > (TCP.x+tol) ||
    1cb4:	c0 90 c1 03 	lds	r12, 0x03C1	; 0x8003c1 <TCP_calc>
    1cb8:	d0 90 c2 03 	lds	r13, 0x03C2	; 0x8003c2 <TCP_calc+0x1>
    1cbc:	e0 90 c3 03 	lds	r14, 0x03C3	; 0x8003c3 <TCP_calc+0x2>
    1cc0:	f0 90 c4 03 	lds	r15, 0x03C4	; 0x8003c4 <TCP_calc+0x3>
    1cc4:	80 90 ab 03 	lds	r8, 0x03AB	; 0x8003ab <TCP>
    1cc8:	90 90 ac 03 	lds	r9, 0x03AC	; 0x8003ac <TCP+0x1>
    1ccc:	a0 90 ad 03 	lds	r10, 0x03AD	; 0x8003ad <TCP+0x2>
    1cd0:	b0 90 ae 03 	lds	r11, 0x03AE	; 0x8003ae <TCP+0x3>
    1cd4:	2a e0       	ldi	r18, 0x0A	; 10
    1cd6:	37 ed       	ldi	r19, 0xD7	; 215
    1cd8:	43 e2       	ldi	r20, 0x23	; 35
    1cda:	5c e3       	ldi	r21, 0x3C	; 60
    1cdc:	c5 01       	movw	r24, r10
    1cde:	b4 01       	movw	r22, r8
    1ce0:	0e 94 6a 10 	call	0x20d4	; 0x20d4 <__subsf3>
    1ce4:	9b 01       	movw	r18, r22
    1ce6:	ac 01       	movw	r20, r24
    1ce8:	c7 01       	movw	r24, r14
    1cea:	b6 01       	movw	r22, r12
    1cec:	0e 94 d7 10 	call	0x21ae	; 0x21ae <__cmpsf2>
    1cf0:	88 23       	and	r24, r24
    1cf2:	0c f4       	brge	.+2      	; 0x1cf6 <main+0x44c>
    1cf4:	7f c0       	rjmp	.+254    	; 0x1df4 <main+0x54a>
    1cf6:	2a e0       	ldi	r18, 0x0A	; 10
    1cf8:	37 ed       	ldi	r19, 0xD7	; 215
    1cfa:	43 e2       	ldi	r20, 0x23	; 35
    1cfc:	5c e3       	ldi	r21, 0x3C	; 60
    1cfe:	c5 01       	movw	r24, r10
    1d00:	b4 01       	movw	r22, r8
    1d02:	0e 94 6b 10 	call	0x20d6	; 0x20d6 <__addsf3>
    1d06:	9b 01       	movw	r18, r22
    1d08:	ac 01       	movw	r20, r24
    1d0a:	c7 01       	movw	r24, r14
    1d0c:	b6 01       	movw	r22, r12
    1d0e:	0e 94 ba 12 	call	0x2574	; 0x2574 <__gesf2>
    1d12:	18 16       	cp	r1, r24
    1d14:	0c f4       	brge	.+2      	; 0x1d18 <main+0x46e>
    1d16:	70 c0       	rjmp	.+224    	; 0x1df8 <main+0x54e>
						   TCP_calc.y < (TCP.y-tol) || TCP_calc.y > (TCP.y+tol) ||
    1d18:	c0 90 c5 03 	lds	r12, 0x03C5	; 0x8003c5 <TCP_calc+0x4>
    1d1c:	d0 90 c6 03 	lds	r13, 0x03C6	; 0x8003c6 <TCP_calc+0x5>
    1d20:	e0 90 c7 03 	lds	r14, 0x03C7	; 0x8003c7 <TCP_calc+0x6>
    1d24:	f0 90 c8 03 	lds	r15, 0x03C8	; 0x8003c8 <TCP_calc+0x7>
    1d28:	80 90 af 03 	lds	r8, 0x03AF	; 0x8003af <TCP+0x4>
    1d2c:	90 90 b0 03 	lds	r9, 0x03B0	; 0x8003b0 <TCP+0x5>
    1d30:	a0 90 b1 03 	lds	r10, 0x03B1	; 0x8003b1 <TCP+0x6>
    1d34:	b0 90 b2 03 	lds	r11, 0x03B2	; 0x8003b2 <TCP+0x7>
    1d38:	2a e0       	ldi	r18, 0x0A	; 10
    1d3a:	37 ed       	ldi	r19, 0xD7	; 215
    1d3c:	43 e2       	ldi	r20, 0x23	; 35
    1d3e:	5c e3       	ldi	r21, 0x3C	; 60
    1d40:	c5 01       	movw	r24, r10
    1d42:	b4 01       	movw	r22, r8
    1d44:	0e 94 6a 10 	call	0x20d4	; 0x20d4 <__subsf3>
    1d48:	9b 01       	movw	r18, r22
    1d4a:	ac 01       	movw	r20, r24
					}
					else
					{
						//Vergleich mit Toleranz (0,01 mm)
						double tol = 0.01;
						if(TCP_calc.x < (TCP.x-tol) || TCP_calc.x > (TCP.x+tol) ||
    1d4c:	c7 01       	movw	r24, r14
    1d4e:	b6 01       	movw	r22, r12
    1d50:	0e 94 d7 10 	call	0x21ae	; 0x21ae <__cmpsf2>
    1d54:	88 23       	and	r24, r24
    1d56:	0c f4       	brge	.+2      	; 0x1d5a <main+0x4b0>
    1d58:	51 c0       	rjmp	.+162    	; 0x1dfc <main+0x552>
						   TCP_calc.y < (TCP.y-tol) || TCP_calc.y > (TCP.y+tol) ||
    1d5a:	2a e0       	ldi	r18, 0x0A	; 10
    1d5c:	37 ed       	ldi	r19, 0xD7	; 215
    1d5e:	43 e2       	ldi	r20, 0x23	; 35
    1d60:	5c e3       	ldi	r21, 0x3C	; 60
    1d62:	c5 01       	movw	r24, r10
    1d64:	b4 01       	movw	r22, r8
    1d66:	0e 94 6b 10 	call	0x20d6	; 0x20d6 <__addsf3>
    1d6a:	9b 01       	movw	r18, r22
    1d6c:	ac 01       	movw	r20, r24
    1d6e:	c7 01       	movw	r24, r14
    1d70:	b6 01       	movw	r22, r12
    1d72:	0e 94 ba 12 	call	0x2574	; 0x2574 <__gesf2>
    1d76:	18 16       	cp	r1, r24
    1d78:	0c f4       	brge	.+2      	; 0x1d7c <main+0x4d2>
    1d7a:	42 c0       	rjmp	.+132    	; 0x1e00 <main+0x556>
						   TCP_calc.z < (TCP.z-tol) || TCP_calc.z > (TCP.z+tol))
    1d7c:	c0 90 c9 03 	lds	r12, 0x03C9	; 0x8003c9 <TCP_calc+0x8>
    1d80:	d0 90 ca 03 	lds	r13, 0x03CA	; 0x8003ca <TCP_calc+0x9>
    1d84:	e0 90 cb 03 	lds	r14, 0x03CB	; 0x8003cb <TCP_calc+0xa>
    1d88:	f0 90 cc 03 	lds	r15, 0x03CC	; 0x8003cc <TCP_calc+0xb>
    1d8c:	80 90 b3 03 	lds	r8, 0x03B3	; 0x8003b3 <TCP+0x8>
    1d90:	90 90 b4 03 	lds	r9, 0x03B4	; 0x8003b4 <TCP+0x9>
    1d94:	a0 90 b5 03 	lds	r10, 0x03B5	; 0x8003b5 <TCP+0xa>
    1d98:	b0 90 b6 03 	lds	r11, 0x03B6	; 0x8003b6 <TCP+0xb>
    1d9c:	2a e0       	ldi	r18, 0x0A	; 10
    1d9e:	37 ed       	ldi	r19, 0xD7	; 215
    1da0:	43 e2       	ldi	r20, 0x23	; 35
    1da2:	5c e3       	ldi	r21, 0x3C	; 60
    1da4:	c5 01       	movw	r24, r10
    1da6:	b4 01       	movw	r22, r8
    1da8:	0e 94 6a 10 	call	0x20d4	; 0x20d4 <__subsf3>
    1dac:	9b 01       	movw	r18, r22
    1dae:	ac 01       	movw	r20, r24
					else
					{
						//Vergleich mit Toleranz (0,01 mm)
						double tol = 0.01;
						if(TCP_calc.x < (TCP.x-tol) || TCP_calc.x > (TCP.x+tol) ||
						   TCP_calc.y < (TCP.y-tol) || TCP_calc.y > (TCP.y+tol) ||
    1db0:	c7 01       	movw	r24, r14
    1db2:	b6 01       	movw	r22, r12
    1db4:	0e 94 d7 10 	call	0x21ae	; 0x21ae <__cmpsf2>
    1db8:	88 23       	and	r24, r24
    1dba:	24 f1       	brlt	.+72     	; 0x1e04 <main+0x55a>
						   TCP_calc.z < (TCP.z-tol) || TCP_calc.z > (TCP.z+tol))
    1dbc:	2a e0       	ldi	r18, 0x0A	; 10
    1dbe:	37 ed       	ldi	r19, 0xD7	; 215
    1dc0:	43 e2       	ldi	r20, 0x23	; 35
    1dc2:	5c e3       	ldi	r21, 0x3C	; 60
    1dc4:	c5 01       	movw	r24, r10
    1dc6:	b4 01       	movw	r22, r8
    1dc8:	0e 94 6b 10 	call	0x20d6	; 0x20d6 <__addsf3>
    1dcc:	9b 01       	movw	r18, r22
    1dce:	ac 01       	movw	r20, r24
    1dd0:	c7 01       	movw	r24, r14
    1dd2:	b6 01       	movw	r22, r12
    1dd4:	0e 94 ba 12 	call	0x2574	; 0x2574 <__gesf2>
    1dd8:	18 16       	cp	r1, r24
    1dda:	b4 f0       	brlt	.+44     	; 0x1e08 <main+0x55e>
    1ddc:	80 e0       	ldi	r24, 0x00	; 0
    1dde:	2e c0       	rjmp	.+92     	; 0x1e3c <main+0x592>
							//reset_tcp(&TCP);
							
							//Info-LEDs: Alle Rot
							for(uint8_t i=0; i<5; i++)
							{
								Led.led_g[i] = 0;
    1de0:	e8 2f       	mov	r30, r24
    1de2:	f0 e0       	ldi	r31, 0x00	; 0
    1de4:	e3 53       	subi	r30, 0x33	; 51
    1de6:	fc 4f       	sbci	r31, 0xFC	; 252
    1de8:	10 82       	st	Z, r1
								Led.led_y[i] = 0;
    1dea:	15 82       	std	Z+5, r1	; 0x05
								Led.led_r[i] = 1;
    1dec:	91 e0       	ldi	r25, 0x01	; 1
    1dee:	92 87       	std	Z+10, r25	; 0x0a
							//Gelenkwinkel und TCP auf Neutralstellung setzen
							//reset_ang(&Ang);
							//reset_tcp(&TCP);
							
							//Info-LEDs: Alle Rot
							for(uint8_t i=0; i<5; i++)
    1df0:	8f 5f       	subi	r24, 0xFF	; 255
    1df2:	0b c0       	rjmp	.+22     	; 0x1e0a <main+0x560>
    1df4:	80 e0       	ldi	r24, 0x00	; 0
    1df6:	09 c0       	rjmp	.+18     	; 0x1e0a <main+0x560>
    1df8:	80 e0       	ldi	r24, 0x00	; 0
    1dfa:	07 c0       	rjmp	.+14     	; 0x1e0a <main+0x560>
    1dfc:	80 e0       	ldi	r24, 0x00	; 0
    1dfe:	05 c0       	rjmp	.+10     	; 0x1e0a <main+0x560>
    1e00:	80 e0       	ldi	r24, 0x00	; 0
    1e02:	03 c0       	rjmp	.+6      	; 0x1e0a <main+0x560>
    1e04:	80 e0       	ldi	r24, 0x00	; 0
    1e06:	01 c0       	rjmp	.+2      	; 0x1e0a <main+0x560>
    1e08:	80 e0       	ldi	r24, 0x00	; 0
    1e0a:	85 30       	cpi	r24, 0x05	; 5
    1e0c:	48 f3       	brcs	.-46     	; 0x1de0 <main+0x536>
								Led.led_g[i] = 0;
								Led.led_y[i] = 0;
								Led.led_r[i] = 1;
							}
							//Warnmeldung senden
							char text5[] = "Fehler bei der Berechnung der Vorwaertskinematik!\n\r";
    1e0e:	84 e3       	ldi	r24, 0x34	; 52
    1e10:	e8 ed       	ldi	r30, 0xD8	; 216
    1e12:	f2 e0       	ldi	r31, 0x02	; 2
    1e14:	de 01       	movw	r26, r28
    1e16:	9f 96       	adiw	r26, 0x2f	; 47
    1e18:	01 90       	ld	r0, Z+
    1e1a:	0d 92       	st	X+, r0
    1e1c:	8a 95       	dec	r24
    1e1e:	e1 f7       	brne	.-8      	; 0x1e18 <main+0x56e>
							usart_send_strg(text5);
    1e20:	ce 01       	movw	r24, r28
    1e22:	8f 96       	adiw	r24, 0x2f	; 47
    1e24:	0e 94 05 01 	call	0x20a	; 0x20a <usart_send_strg>
						//Vergleich mit Toleranz (0,01 mm)
						double tol = 0.01;
						if(TCP_calc.x < (TCP.x-tol) || TCP_calc.x > (TCP.x+tol) ||
						   TCP_calc.y < (TCP.y-tol) || TCP_calc.y > (TCP.y+tol) ||
						   TCP_calc.z < (TCP.z-tol) || TCP_calc.z > (TCP.z+tol))
						{
    1e28:	dc c0       	rjmp	.+440    	; 0x1fe2 <main+0x738>
						else
						{ 
							//Info-LEDs: Alle grün
							for(uint8_t i=0; i<5; i++)
							{
								Led.led_g[i] = 1;
    1e2a:	e8 2f       	mov	r30, r24
    1e2c:	f0 e0       	ldi	r31, 0x00	; 0
    1e2e:	e3 53       	subi	r30, 0x33	; 51
    1e30:	fc 4f       	sbci	r31, 0xFC	; 252
    1e32:	91 e0       	ldi	r25, 0x01	; 1
    1e34:	90 83       	st	Z, r25
								Led.led_y[i] = 0;
    1e36:	15 82       	std	Z+5, r1	; 0x05
								Led.led_r[i] = 0;
    1e38:	12 86       	std	Z+10, r1	; 0x0a
							usart_send_strg(text5);
						}
						else
						{ 
							//Info-LEDs: Alle grün
							for(uint8_t i=0; i<5; i++)
    1e3a:	8f 5f       	subi	r24, 0xFF	; 255
    1e3c:	85 30       	cpi	r24, 0x05	; 5
    1e3e:	a8 f3       	brcs	.-22     	; 0x1e2a <main+0x580>
							
							//Gelenkwinkel erfolgreich gesetzt
							//grüne LED leuchten lassen
							//Erfolgsmeldung ausgeben
							char text6[120];
							sprintf(text6, "Berechnete Gelenkwinkel: Phi_1=%.2f, Phi_21=%.2f, Phi_22=%.2f, Phi_31=%.2f, Phi_32=%.2f\n\r",
    1e40:	08 e2       	ldi	r16, 0x28	; 40
    1e42:	13 e0       	ldi	r17, 0x03	; 3
    1e44:	f8 01       	movw	r30, r16
    1e46:	60 89       	ldd	r22, Z+16	; 0x10
    1e48:	71 89       	ldd	r23, Z+17	; 0x11
    1e4a:	82 89       	ldd	r24, Z+18	; 0x12
    1e4c:	93 89       	ldd	r25, Z+19	; 0x13
    1e4e:	0e 94 d5 00 	call	0x1aa	; 0x1aa <rad_in_grad>
    1e52:	56 2e       	mov	r5, r22
    1e54:	47 2e       	mov	r4, r23
    1e56:	38 2e       	mov	r3, r24
    1e58:	29 2e       	mov	r2, r25
    1e5a:	f8 01       	movw	r30, r16
    1e5c:	64 85       	ldd	r22, Z+12	; 0x0c
    1e5e:	75 85       	ldd	r23, Z+13	; 0x0d
    1e60:	86 85       	ldd	r24, Z+14	; 0x0e
    1e62:	97 85       	ldd	r25, Z+15	; 0x0f
    1e64:	0e 94 d5 00 	call	0x1aa	; 0x1aa <rad_in_grad>
    1e68:	96 2e       	mov	r9, r22
    1e6a:	87 2e       	mov	r8, r23
    1e6c:	78 2e       	mov	r7, r24
    1e6e:	69 2e       	mov	r6, r25
    1e70:	f8 01       	movw	r30, r16
    1e72:	60 85       	ldd	r22, Z+8	; 0x08
    1e74:	71 85       	ldd	r23, Z+9	; 0x09
    1e76:	82 85       	ldd	r24, Z+10	; 0x0a
    1e78:	93 85       	ldd	r25, Z+11	; 0x0b
    1e7a:	0e 94 d5 00 	call	0x1aa	; 0x1aa <rad_in_grad>
    1e7e:	d6 2e       	mov	r13, r22
    1e80:	c7 2e       	mov	r12, r23
    1e82:	b8 2e       	mov	r11, r24
    1e84:	a9 2e       	mov	r10, r25
    1e86:	f8 01       	movw	r30, r16
    1e88:	64 81       	ldd	r22, Z+4	; 0x04
    1e8a:	75 81       	ldd	r23, Z+5	; 0x05
    1e8c:	86 81       	ldd	r24, Z+6	; 0x06
    1e8e:	97 81       	ldd	r25, Z+7	; 0x07
    1e90:	0e 94 d5 00 	call	0x1aa	; 0x1aa <rad_in_grad>
    1e94:	c9 56       	subi	r28, 0x69	; 105
    1e96:	de 4f       	sbci	r29, 0xFE	; 254
    1e98:	68 83       	st	Y, r22
    1e9a:	c7 59       	subi	r28, 0x97	; 151
    1e9c:	d1 40       	sbci	r29, 0x01	; 1
    1e9e:	c8 56       	subi	r28, 0x68	; 104
    1ea0:	de 4f       	sbci	r29, 0xFE	; 254
    1ea2:	78 83       	st	Y, r23
    1ea4:	c8 59       	subi	r28, 0x98	; 152
    1ea6:	d1 40       	sbci	r29, 0x01	; 1
    1ea8:	f8 2e       	mov	r15, r24
    1eaa:	e9 2e       	mov	r14, r25
    1eac:	f8 01       	movw	r30, r16
    1eae:	60 81       	ld	r22, Z
    1eb0:	71 81       	ldd	r23, Z+1	; 0x01
    1eb2:	82 81       	ldd	r24, Z+2	; 0x02
    1eb4:	93 81       	ldd	r25, Z+3	; 0x03
    1eb6:	0e 94 d5 00 	call	0x1aa	; 0x1aa <rad_in_grad>
    1eba:	2f 92       	push	r2
    1ebc:	3f 92       	push	r3
    1ebe:	4f 92       	push	r4
    1ec0:	5f 92       	push	r5
    1ec2:	6f 92       	push	r6
    1ec4:	7f 92       	push	r7
    1ec6:	8f 92       	push	r8
    1ec8:	9f 92       	push	r9
    1eca:	af 92       	push	r10
    1ecc:	bf 92       	push	r11
    1ece:	cf 92       	push	r12
    1ed0:	df 92       	push	r13
    1ed2:	ef 92       	push	r14
    1ed4:	ff 92       	push	r15
    1ed6:	c8 56       	subi	r28, 0x68	; 104
    1ed8:	de 4f       	sbci	r29, 0xFE	; 254
    1eda:	f8 81       	ld	r31, Y
    1edc:	c8 59       	subi	r28, 0x98	; 152
    1ede:	d1 40       	sbci	r29, 0x01	; 1
    1ee0:	ff 93       	push	r31
    1ee2:	c9 56       	subi	r28, 0x69	; 105
    1ee4:	de 4f       	sbci	r29, 0xFE	; 254
    1ee6:	28 81       	ld	r18, Y
    1ee8:	c7 59       	subi	r28, 0x97	; 151
    1eea:	d1 40       	sbci	r29, 0x01	; 1
    1eec:	2f 93       	push	r18
    1eee:	9f 93       	push	r25
    1ef0:	8f 93       	push	r24
    1ef2:	7f 93       	push	r23
    1ef4:	6f 93       	push	r22
    1ef6:	8a e7       	ldi	r24, 0x7A	; 122
    1ef8:	91 e0       	ldi	r25, 0x01	; 1
    1efa:	9f 93       	push	r25
    1efc:	8f 93       	push	r24
    1efe:	8e 01       	movw	r16, r28
    1f00:	09 55       	subi	r16, 0x59	; 89
    1f02:	1f 4f       	sbci	r17, 0xFF	; 255
    1f04:	1f 93       	push	r17
    1f06:	0f 93       	push	r16
    1f08:	0e 94 3c 15 	call	0x2a78	; 0x2a78 <sprintf>
							rad_in_grad(Ang.Phi_1), 
							rad_in_grad(Ang.Phi_21), 
							rad_in_grad(Ang.Phi_22), 
							rad_in_grad(Ang.Phi_31), 
							rad_in_grad(Ang.Phi_32));
							usart_send_strg(text6);
    1f0c:	c8 01       	movw	r24, r16
    1f0e:	0e 94 05 01 	call	0x20a	; 0x20a <usart_send_strg>
							
							//Ausgabe des berechneten TCPs über die Vorwärtskinematik
							char text7[60];
							sprintf(text7, "Berechneter TCP: x=%.2f, y=%.2f, z=%.2f\n\r",							
    1f12:	e1 ec       	ldi	r30, 0xC1	; 193
    1f14:	f3 e0       	ldi	r31, 0x03	; 3
    1f16:	83 85       	ldd	r24, Z+11	; 0x0b
    1f18:	8f 93       	push	r24
    1f1a:	82 85       	ldd	r24, Z+10	; 0x0a
    1f1c:	8f 93       	push	r24
    1f1e:	81 85       	ldd	r24, Z+9	; 0x09
    1f20:	8f 93       	push	r24
    1f22:	80 85       	ldd	r24, Z+8	; 0x08
    1f24:	8f 93       	push	r24
    1f26:	87 81       	ldd	r24, Z+7	; 0x07
    1f28:	8f 93       	push	r24
    1f2a:	86 81       	ldd	r24, Z+6	; 0x06
    1f2c:	8f 93       	push	r24
    1f2e:	85 81       	ldd	r24, Z+5	; 0x05
    1f30:	8f 93       	push	r24
    1f32:	84 81       	ldd	r24, Z+4	; 0x04
    1f34:	8f 93       	push	r24
    1f36:	83 81       	ldd	r24, Z+3	; 0x03
    1f38:	8f 93       	push	r24
    1f3a:	82 81       	ldd	r24, Z+2	; 0x02
    1f3c:	8f 93       	push	r24
    1f3e:	81 81       	ldd	r24, Z+1	; 0x01
    1f40:	8f 93       	push	r24
    1f42:	80 81       	ld	r24, Z
    1f44:	8f 93       	push	r24
    1f46:	84 ed       	ldi	r24, 0xD4	; 212
    1f48:	91 e0       	ldi	r25, 0x01	; 1
    1f4a:	9f 93       	push	r25
    1f4c:	8f 93       	push	r24
    1f4e:	08 58       	subi	r16, 0x88	; 136
    1f50:	1f 4f       	sbci	r17, 0xFF	; 255
    1f52:	1f 93       	push	r17
    1f54:	0f 93       	push	r16
    1f56:	0e 94 3c 15 	call	0x2a78	; 0x2a78 <sprintf>
							TCP_calc.x,
							TCP_calc.y,
							TCP_calc.z);
							usart_send_strg(text7);
    1f5a:	0f b6       	in	r0, 0x3f	; 63
    1f5c:	f8 94       	cli
    1f5e:	de bf       	out	0x3e, r29	; 62
    1f60:	0f be       	out	0x3f, r0	; 63
    1f62:	cd bf       	out	0x3d, r28	; 61
    1f64:	c8 01       	movw	r24, r16
    1f66:	0e 94 05 01 	call	0x20a	; 0x20a <usart_send_strg>
														
							//Gelenkwinkel in Pulsweite (*2) umrechnen
							//und im Strut Pul speichern
							set_pulse(&Ang, &Pul, 1, &Led);
    1f6a:	2d ec       	ldi	r18, 0xCD	; 205
    1f6c:	33 e0       	ldi	r19, 0x03	; 3
    1f6e:	41 e0       	ldi	r20, 0x01	; 1
    1f70:	67 eb       	ldi	r22, 0xB7	; 183
    1f72:	73 e0       	ldi	r23, 0x03	; 3
    1f74:	88 e2       	ldi	r24, 0x28	; 40
    1f76:	93 e0       	ldi	r25, 0x03	; 3
    1f78:	0e 94 92 0a 	call	0x1524	; 0x1524 <set_pulse>
							sprintf(text8, "Berechnete Pulslängen: Pul_1=%i, Pul_2=%i, Pul_3=%i, Pul_4=%i, Pul_5=%i\n\r",
							Pul.pul_1/2,
							Pul.pul_2/2,
							Pul.pul_3/2,
							Pul.pul_4/2,
							Pul.pul_5/2);
    1f7c:	e7 eb       	ldi	r30, 0xB7	; 183
    1f7e:	f3 e0       	ldi	r31, 0x03	; 3
    1f80:	a0 85       	ldd	r26, Z+8	; 0x08
    1f82:	b1 85       	ldd	r27, Z+9	; 0x09
							char text8[120];
							sprintf(text8, "Berechnete Pulslängen: Pul_1=%i, Pul_2=%i, Pul_3=%i, Pul_4=%i, Pul_5=%i\n\r",
							Pul.pul_1/2,
							Pul.pul_2/2,
							Pul.pul_3/2,
							Pul.pul_4/2,
    1f84:	66 81       	ldd	r22, Z+6	; 0x06
    1f86:	77 81       	ldd	r23, Z+7	; 0x07
							//Erfolgsmeldung ausgeben
							char text8[120];
							sprintf(text8, "Berechnete Pulslängen: Pul_1=%i, Pul_2=%i, Pul_3=%i, Pul_4=%i, Pul_5=%i\n\r",
							Pul.pul_1/2,
							Pul.pul_2/2,
							Pul.pul_3/2,
    1f88:	44 81       	ldd	r20, Z+4	; 0x04
    1f8a:	55 81       	ldd	r21, Z+5	; 0x05
							set_pulse(&Ang, &Pul, 1, &Led);
							//Erfolgsmeldung ausgeben
							char text8[120];
							sprintf(text8, "Berechnete Pulslängen: Pul_1=%i, Pul_2=%i, Pul_3=%i, Pul_4=%i, Pul_5=%i\n\r",
							Pul.pul_1/2,
							Pul.pul_2/2,
    1f8c:	22 81       	ldd	r18, Z+2	; 0x02
    1f8e:	33 81       	ldd	r19, Z+3	; 0x03
							//und im Strut Pul speichern
							set_pulse(&Ang, &Pul, 1, &Led);
							//Erfolgsmeldung ausgeben
							char text8[120];
							sprintf(text8, "Berechnete Pulslängen: Pul_1=%i, Pul_2=%i, Pul_3=%i, Pul_4=%i, Pul_5=%i\n\r",
							Pul.pul_1/2,
    1f90:	80 81       	ld	r24, Z
    1f92:	91 81       	ldd	r25, Z+1	; 0x01
							//Gelenkwinkel in Pulsweite (*2) umrechnen
							//und im Strut Pul speichern
							set_pulse(&Ang, &Pul, 1, &Led);
							//Erfolgsmeldung ausgeben
							char text8[120];
							sprintf(text8, "Berechnete Pulslängen: Pul_1=%i, Pul_2=%i, Pul_3=%i, Pul_4=%i, Pul_5=%i\n\r",
    1f94:	fd 01       	movw	r30, r26
    1f96:	f6 95       	lsr	r31
    1f98:	e7 95       	ror	r30
    1f9a:	ff 93       	push	r31
    1f9c:	ef 93       	push	r30
    1f9e:	76 95       	lsr	r23
    1fa0:	67 95       	ror	r22
    1fa2:	7f 93       	push	r23
    1fa4:	6f 93       	push	r22
    1fa6:	56 95       	lsr	r21
    1fa8:	47 95       	ror	r20
    1faa:	5f 93       	push	r21
    1fac:	4f 93       	push	r20
    1fae:	36 95       	lsr	r19
    1fb0:	27 95       	ror	r18
    1fb2:	3f 93       	push	r19
    1fb4:	2f 93       	push	r18
    1fb6:	96 95       	lsr	r25
    1fb8:	87 95       	ror	r24
    1fba:	9f 93       	push	r25
    1fbc:	8f 93       	push	r24
    1fbe:	8e ef       	ldi	r24, 0xFE	; 254
    1fc0:	91 e0       	ldi	r25, 0x01	; 1
    1fc2:	9f 93       	push	r25
    1fc4:	8f 93       	push	r24
    1fc6:	00 5f       	subi	r16, 0xF0	; 240
    1fc8:	11 09       	sbc	r17, r1
    1fca:	1f 93       	push	r17
    1fcc:	0f 93       	push	r16
    1fce:	0e 94 3c 15 	call	0x2a78	; 0x2a78 <sprintf>
							Pul.pul_1/2,
							Pul.pul_2/2,
							Pul.pul_3/2,
							Pul.pul_4/2,
							Pul.pul_5/2);
							usart_send_strg(text8);
    1fd2:	c8 01       	movw	r24, r16
    1fd4:	0e 94 05 01 	call	0x20a	; 0x20a <usart_send_strg>
    1fd8:	0f b6       	in	r0, 0x3f	; 63
    1fda:	f8 94       	cli
    1fdc:	de bf       	out	0x3e, r29	; 62
    1fde:	0f be       	out	0x3f, r0	; 63
    1fe0:	cd bf       	out	0x3d, r28	; 61
						}
					}
				}	
						    
				//Puffer für das Einlesen neuer Koordinaten vorbereiten
				usart_strg_compl = 0;
    1fe2:	10 92 aa 03 	sts	0x03AA, r1	; 0x8003aa <usart_strg_compl>
				//Info-LEDs anzeigen
				shiftr_out(shiftr_data(&Led));
    1fe6:	8d ec       	ldi	r24, 0xCD	; 205
    1fe8:	93 e0       	ldi	r25, 0x03	; 3
    1fea:	0e 94 f3 0b 	call	0x17e6	; 0x17e6 <shiftr_data>
    1fee:	0e 94 35 0c 	call	0x186a	; 0x186a <shiftr_out>
				//Eingabeaufforderung für die nächste Eingabe
				usart_send_strg(text1);
    1ff2:	ce 01       	movw	r24, r28
    1ff4:	01 96       	adiw	r24, 0x01	; 1
    1ff6:	0e 94 05 01 	call	0x20a	; 0x20a <usart_send_strg>
    1ffa:	8b cc       	rjmp	.-1770   	; 0x1912 <main+0x68>

00001ffc <__vector_11>:
// Interrupt Handler //
///////////////////////

//Timer 1 Handler für PWM-Signal
ISR(TIMER1_COMPA_vect)
{
    1ffc:	1f 92       	push	r1
    1ffe:	0f 92       	push	r0
    2000:	0f b6       	in	r0, 0x3f	; 63
    2002:	0f 92       	push	r0
    2004:	11 24       	eor	r1, r1
    2006:	8f 93       	push	r24
	//Alle Pins an Port B auf HIGH setzen
	//Servos werden synchron angesteuert
	PORTB = 0xFF;		
    2008:	8f ef       	ldi	r24, 0xFF	; 255
    200a:	85 b9       	out	0x05, r24	; 5
}
    200c:	8f 91       	pop	r24
    200e:	0f 90       	pop	r0
    2010:	0f be       	out	0x3f, r0	; 63
    2012:	0f 90       	pop	r0
    2014:	1f 90       	pop	r1
    2016:	18 95       	reti

00002018 <__vector_14>:

//Timer 0 Handler für die Abtastrate der Joysticks und die Servogeschwindigkeit (Interrupt jede ms)
ISR(TIMER0_COMPA_vect)
{
    2018:	1f 92       	push	r1
    201a:	0f 92       	push	r0
    201c:	0f b6       	in	r0, 0x3f	; 63
    201e:	0f 92       	push	r0
    2020:	11 24       	eor	r1, r1
    2022:	8f 93       	push	r24
	Joy_ms_count++;
    2024:	80 91 0e 03 	lds	r24, 0x030E	; 0x80030e <Joy_ms_count>
    2028:	8f 5f       	subi	r24, 0xFF	; 255
    202a:	80 93 0e 03 	sts	0x030E, r24	; 0x80030e <Joy_ms_count>
	Serv_ms_count++;	
    202e:	80 91 44 03 	lds	r24, 0x0344	; 0x800344 <Serv_ms_count>
    2032:	8f 5f       	subi	r24, 0xFF	; 255
    2034:	80 93 44 03 	sts	0x0344, r24	; 0x800344 <Serv_ms_count>
}
    2038:	8f 91       	pop	r24
    203a:	0f 90       	pop	r0
    203c:	0f be       	out	0x3f, r0	; 63
    203e:	0f 90       	pop	r0
    2040:	1f 90       	pop	r1
    2042:	18 95       	reti

00002044 <__vector_18>:

//USART Handler: USART Rx Complete (0x0024)
ISR(USART_RX_vect)
{
    2044:	1f 92       	push	r1
    2046:	0f 92       	push	r0
    2048:	0f b6       	in	r0, 0x3f	; 63
    204a:	0f 92       	push	r0
    204c:	11 24       	eor	r1, r1
    204e:	8f 93       	push	r24
    2050:	9f 93       	push	r25
    2052:	ef 93       	push	r30
    2054:	ff 93       	push	r31
	//Zeichen werden im C-String "usart_rx_buffer" abgelegt
	//wenn alle Zeichen des Strings in den Puffer geladen wurden, 
	//wird die Variable usart_strg_complete auf 1 gesetzt
	uint8_t nextChar;
	//Zeichen für Zeichen einlesen
	nextChar = UDR0;
    2056:	80 91 c6 00 	lds	r24, 0x00C6	; 0x8000c6 <__TEXT_REGION_LENGTH__+0x7f80c6>
	if(usart_strg_compl == 0) 
    205a:	90 91 aa 03 	lds	r25, 0x03AA	; 0x8003aa <usart_strg_compl>
    205e:	91 11       	cpse	r25, r1
    2060:	1f c0       	rjmp	.+62     	; 0x20a0 <__vector_18+0x5c>
	{
		if(nextChar != '\n' && nextChar != '\r' && usart_strg_count < USART_RX_MAX) 
    2062:	8a 30       	cpi	r24, 0x0A	; 10
    2064:	91 f0       	breq	.+36     	; 0x208a <__vector_18+0x46>
    2066:	8d 30       	cpi	r24, 0x0D	; 13
    2068:	81 f0       	breq	.+32     	; 0x208a <__vector_18+0x46>
    206a:	90 91 27 03 	lds	r25, 0x0327	; 0x800327 <usart_strg_count>
    206e:	94 36       	cpi	r25, 0x64	; 100
    2070:	60 f4       	brcc	.+24     	; 0x208a <__vector_18+0x46>
		{
			usart_rx_buffer[usart_strg_count] = nextChar;
    2072:	e0 91 27 03 	lds	r30, 0x0327	; 0x800327 <usart_strg_count>
    2076:	f0 e0       	ldi	r31, 0x00	; 0
    2078:	eb 5b       	subi	r30, 0xBB	; 187
    207a:	fc 4f       	sbci	r31, 0xFC	; 252
    207c:	80 83       	st	Z, r24
			usart_strg_count++;
    207e:	80 91 27 03 	lds	r24, 0x0327	; 0x800327 <usart_strg_count>
    2082:	8f 5f       	subi	r24, 0xFF	; 255
    2084:	80 93 27 03 	sts	0x0327, r24	; 0x800327 <usart_strg_count>
    2088:	0b c0       	rjmp	.+22     	; 0x20a0 <__vector_18+0x5c>
		}
		else 
		{
			usart_rx_buffer[usart_strg_count] = '\0';
    208a:	e0 91 27 03 	lds	r30, 0x0327	; 0x800327 <usart_strg_count>
    208e:	f0 e0       	ldi	r31, 0x00	; 0
    2090:	eb 5b       	subi	r30, 0xBB	; 187
    2092:	fc 4f       	sbci	r31, 0xFC	; 252
    2094:	10 82       	st	Z, r1
			usart_strg_count = 0;
    2096:	10 92 27 03 	sts	0x0327, r1	; 0x800327 <usart_strg_count>
			usart_strg_compl = 1;
    209a:	81 e0       	ldi	r24, 0x01	; 1
    209c:	80 93 aa 03 	sts	0x03AA, r24	; 0x8003aa <usart_strg_compl>
		}
	}
}
    20a0:	ff 91       	pop	r31
    20a2:	ef 91       	pop	r30
    20a4:	9f 91       	pop	r25
    20a6:	8f 91       	pop	r24
    20a8:	0f 90       	pop	r0
    20aa:	0f be       	out	0x3f, r0	; 63
    20ac:	0f 90       	pop	r0
    20ae:	1f 90       	pop	r1
    20b0:	18 95       	reti

000020b2 <acos>:
    20b2:	9f 93       	push	r25
    20b4:	9f 77       	andi	r25, 0x7F	; 127
    20b6:	0e 94 bf 11 	call	0x237e	; 0x237e <__fp_arccos>
    20ba:	0f 90       	pop	r0
    20bc:	00 20       	and	r0, r0
    20be:	42 f4       	brpl	.+16     	; 0x20d0 <acos+0x1e>
    20c0:	90 58       	subi	r25, 0x80	; 128
    20c2:	a2 ea       	ldi	r26, 0xA2	; 162
    20c4:	2a ed       	ldi	r18, 0xDA	; 218
    20c6:	3f e0       	ldi	r19, 0x0F	; 15
    20c8:	49 e4       	ldi	r20, 0x49	; 73
    20ca:	50 e4       	ldi	r21, 0x40	; 64
    20cc:	0e 94 82 10 	call	0x2104	; 0x2104 <__addsf3x>
    20d0:	0c 94 6c 12 	jmp	0x24d8	; 0x24d8 <__fp_round>

000020d4 <__subsf3>:
    20d4:	50 58       	subi	r21, 0x80	; 128

000020d6 <__addsf3>:
    20d6:	bb 27       	eor	r27, r27
    20d8:	aa 27       	eor	r26, r26
    20da:	0e 94 82 10 	call	0x2104	; 0x2104 <__addsf3x>
    20de:	0c 94 6c 12 	jmp	0x24d8	; 0x24d8 <__fp_round>
    20e2:	0e 94 33 12 	call	0x2466	; 0x2466 <__fp_pscA>
    20e6:	38 f0       	brcs	.+14     	; 0x20f6 <__addsf3+0x20>
    20e8:	0e 94 3a 12 	call	0x2474	; 0x2474 <__fp_pscB>
    20ec:	20 f0       	brcs	.+8      	; 0x20f6 <__addsf3+0x20>
    20ee:	39 f4       	brne	.+14     	; 0x20fe <__addsf3+0x28>
    20f0:	9f 3f       	cpi	r25, 0xFF	; 255
    20f2:	19 f4       	brne	.+6      	; 0x20fa <__addsf3+0x24>
    20f4:	26 f4       	brtc	.+8      	; 0x20fe <__addsf3+0x28>
    20f6:	0c 94 09 12 	jmp	0x2412	; 0x2412 <__fp_nan>
    20fa:	0e f4       	brtc	.+2      	; 0x20fe <__addsf3+0x28>
    20fc:	e0 95       	com	r30
    20fe:	e7 fb       	bst	r30, 7
    2100:	0c 94 03 12 	jmp	0x2406	; 0x2406 <__fp_inf>

00002104 <__addsf3x>:
    2104:	e9 2f       	mov	r30, r25
    2106:	0e 94 91 12 	call	0x2522	; 0x2522 <__fp_split3>
    210a:	58 f3       	brcs	.-42     	; 0x20e2 <__addsf3+0xc>
    210c:	ba 17       	cp	r27, r26
    210e:	62 07       	cpc	r22, r18
    2110:	73 07       	cpc	r23, r19
    2112:	84 07       	cpc	r24, r20
    2114:	95 07       	cpc	r25, r21
    2116:	20 f0       	brcs	.+8      	; 0x2120 <__addsf3x+0x1c>
    2118:	79 f4       	brne	.+30     	; 0x2138 <__addsf3x+0x34>
    211a:	a6 f5       	brtc	.+104    	; 0x2184 <__addsf3x+0x80>
    211c:	0c 94 b3 12 	jmp	0x2566	; 0x2566 <__fp_zero>
    2120:	0e f4       	brtc	.+2      	; 0x2124 <__addsf3x+0x20>
    2122:	e0 95       	com	r30
    2124:	0b 2e       	mov	r0, r27
    2126:	ba 2f       	mov	r27, r26
    2128:	a0 2d       	mov	r26, r0
    212a:	0b 01       	movw	r0, r22
    212c:	b9 01       	movw	r22, r18
    212e:	90 01       	movw	r18, r0
    2130:	0c 01       	movw	r0, r24
    2132:	ca 01       	movw	r24, r20
    2134:	a0 01       	movw	r20, r0
    2136:	11 24       	eor	r1, r1
    2138:	ff 27       	eor	r31, r31
    213a:	59 1b       	sub	r21, r25
    213c:	99 f0       	breq	.+38     	; 0x2164 <__addsf3x+0x60>
    213e:	59 3f       	cpi	r21, 0xF9	; 249
    2140:	50 f4       	brcc	.+20     	; 0x2156 <__addsf3x+0x52>
    2142:	50 3e       	cpi	r21, 0xE0	; 224
    2144:	68 f1       	brcs	.+90     	; 0x21a0 <__addsf3x+0x9c>
    2146:	1a 16       	cp	r1, r26
    2148:	f0 40       	sbci	r31, 0x00	; 0
    214a:	a2 2f       	mov	r26, r18
    214c:	23 2f       	mov	r18, r19
    214e:	34 2f       	mov	r19, r20
    2150:	44 27       	eor	r20, r20
    2152:	58 5f       	subi	r21, 0xF8	; 248
    2154:	f3 cf       	rjmp	.-26     	; 0x213c <__addsf3x+0x38>
    2156:	46 95       	lsr	r20
    2158:	37 95       	ror	r19
    215a:	27 95       	ror	r18
    215c:	a7 95       	ror	r26
    215e:	f0 40       	sbci	r31, 0x00	; 0
    2160:	53 95       	inc	r21
    2162:	c9 f7       	brne	.-14     	; 0x2156 <__addsf3x+0x52>
    2164:	7e f4       	brtc	.+30     	; 0x2184 <__addsf3x+0x80>
    2166:	1f 16       	cp	r1, r31
    2168:	ba 0b       	sbc	r27, r26
    216a:	62 0b       	sbc	r22, r18
    216c:	73 0b       	sbc	r23, r19
    216e:	84 0b       	sbc	r24, r20
    2170:	ba f0       	brmi	.+46     	; 0x21a0 <__addsf3x+0x9c>
    2172:	91 50       	subi	r25, 0x01	; 1
    2174:	a1 f0       	breq	.+40     	; 0x219e <__addsf3x+0x9a>
    2176:	ff 0f       	add	r31, r31
    2178:	bb 1f       	adc	r27, r27
    217a:	66 1f       	adc	r22, r22
    217c:	77 1f       	adc	r23, r23
    217e:	88 1f       	adc	r24, r24
    2180:	c2 f7       	brpl	.-16     	; 0x2172 <__addsf3x+0x6e>
    2182:	0e c0       	rjmp	.+28     	; 0x21a0 <__addsf3x+0x9c>
    2184:	ba 0f       	add	r27, r26
    2186:	62 1f       	adc	r22, r18
    2188:	73 1f       	adc	r23, r19
    218a:	84 1f       	adc	r24, r20
    218c:	48 f4       	brcc	.+18     	; 0x21a0 <__addsf3x+0x9c>
    218e:	87 95       	ror	r24
    2190:	77 95       	ror	r23
    2192:	67 95       	ror	r22
    2194:	b7 95       	ror	r27
    2196:	f7 95       	ror	r31
    2198:	9e 3f       	cpi	r25, 0xFE	; 254
    219a:	08 f0       	brcs	.+2      	; 0x219e <__addsf3x+0x9a>
    219c:	b0 cf       	rjmp	.-160    	; 0x20fe <__addsf3+0x28>
    219e:	93 95       	inc	r25
    21a0:	88 0f       	add	r24, r24
    21a2:	08 f0       	brcs	.+2      	; 0x21a6 <__addsf3x+0xa2>
    21a4:	99 27       	eor	r25, r25
    21a6:	ee 0f       	add	r30, r30
    21a8:	97 95       	ror	r25
    21aa:	87 95       	ror	r24
    21ac:	08 95       	ret

000021ae <__cmpsf2>:
    21ae:	0e 94 df 11 	call	0x23be	; 0x23be <__fp_cmp>
    21b2:	08 f4       	brcc	.+2      	; 0x21b6 <__cmpsf2+0x8>
    21b4:	81 e0       	ldi	r24, 0x01	; 1
    21b6:	08 95       	ret

000021b8 <cos>:
    21b8:	0e 94 43 12 	call	0x2486	; 0x2486 <__fp_rempio2>
    21bc:	e3 95       	inc	r30
    21be:	0c 94 7d 12 	jmp	0x24fa	; 0x24fa <__fp_sinus>

000021c2 <__divsf3>:
    21c2:	0e 94 f5 10 	call	0x21ea	; 0x21ea <__divsf3x>
    21c6:	0c 94 6c 12 	jmp	0x24d8	; 0x24d8 <__fp_round>
    21ca:	0e 94 3a 12 	call	0x2474	; 0x2474 <__fp_pscB>
    21ce:	58 f0       	brcs	.+22     	; 0x21e6 <__divsf3+0x24>
    21d0:	0e 94 33 12 	call	0x2466	; 0x2466 <__fp_pscA>
    21d4:	40 f0       	brcs	.+16     	; 0x21e6 <__divsf3+0x24>
    21d6:	29 f4       	brne	.+10     	; 0x21e2 <__divsf3+0x20>
    21d8:	5f 3f       	cpi	r21, 0xFF	; 255
    21da:	29 f0       	breq	.+10     	; 0x21e6 <__divsf3+0x24>
    21dc:	0c 94 03 12 	jmp	0x2406	; 0x2406 <__fp_inf>
    21e0:	51 11       	cpse	r21, r1
    21e2:	0c 94 b4 12 	jmp	0x2568	; 0x2568 <__fp_szero>
    21e6:	0c 94 09 12 	jmp	0x2412	; 0x2412 <__fp_nan>

000021ea <__divsf3x>:
    21ea:	0e 94 91 12 	call	0x2522	; 0x2522 <__fp_split3>
    21ee:	68 f3       	brcs	.-38     	; 0x21ca <__divsf3+0x8>

000021f0 <__divsf3_pse>:
    21f0:	99 23       	and	r25, r25
    21f2:	b1 f3       	breq	.-20     	; 0x21e0 <__divsf3+0x1e>
    21f4:	55 23       	and	r21, r21
    21f6:	91 f3       	breq	.-28     	; 0x21dc <__divsf3+0x1a>
    21f8:	95 1b       	sub	r25, r21
    21fa:	55 0b       	sbc	r21, r21
    21fc:	bb 27       	eor	r27, r27
    21fe:	aa 27       	eor	r26, r26
    2200:	62 17       	cp	r22, r18
    2202:	73 07       	cpc	r23, r19
    2204:	84 07       	cpc	r24, r20
    2206:	38 f0       	brcs	.+14     	; 0x2216 <__divsf3_pse+0x26>
    2208:	9f 5f       	subi	r25, 0xFF	; 255
    220a:	5f 4f       	sbci	r21, 0xFF	; 255
    220c:	22 0f       	add	r18, r18
    220e:	33 1f       	adc	r19, r19
    2210:	44 1f       	adc	r20, r20
    2212:	aa 1f       	adc	r26, r26
    2214:	a9 f3       	breq	.-22     	; 0x2200 <__divsf3_pse+0x10>
    2216:	35 d0       	rcall	.+106    	; 0x2282 <__divsf3_pse+0x92>
    2218:	0e 2e       	mov	r0, r30
    221a:	3a f0       	brmi	.+14     	; 0x222a <__divsf3_pse+0x3a>
    221c:	e0 e8       	ldi	r30, 0x80	; 128
    221e:	32 d0       	rcall	.+100    	; 0x2284 <__divsf3_pse+0x94>
    2220:	91 50       	subi	r25, 0x01	; 1
    2222:	50 40       	sbci	r21, 0x00	; 0
    2224:	e6 95       	lsr	r30
    2226:	00 1c       	adc	r0, r0
    2228:	ca f7       	brpl	.-14     	; 0x221c <__divsf3_pse+0x2c>
    222a:	2b d0       	rcall	.+86     	; 0x2282 <__divsf3_pse+0x92>
    222c:	fe 2f       	mov	r31, r30
    222e:	29 d0       	rcall	.+82     	; 0x2282 <__divsf3_pse+0x92>
    2230:	66 0f       	add	r22, r22
    2232:	77 1f       	adc	r23, r23
    2234:	88 1f       	adc	r24, r24
    2236:	bb 1f       	adc	r27, r27
    2238:	26 17       	cp	r18, r22
    223a:	37 07       	cpc	r19, r23
    223c:	48 07       	cpc	r20, r24
    223e:	ab 07       	cpc	r26, r27
    2240:	b0 e8       	ldi	r27, 0x80	; 128
    2242:	09 f0       	breq	.+2      	; 0x2246 <__divsf3_pse+0x56>
    2244:	bb 0b       	sbc	r27, r27
    2246:	80 2d       	mov	r24, r0
    2248:	bf 01       	movw	r22, r30
    224a:	ff 27       	eor	r31, r31
    224c:	93 58       	subi	r25, 0x83	; 131
    224e:	5f 4f       	sbci	r21, 0xFF	; 255
    2250:	3a f0       	brmi	.+14     	; 0x2260 <__divsf3_pse+0x70>
    2252:	9e 3f       	cpi	r25, 0xFE	; 254
    2254:	51 05       	cpc	r21, r1
    2256:	78 f0       	brcs	.+30     	; 0x2276 <__divsf3_pse+0x86>
    2258:	0c 94 03 12 	jmp	0x2406	; 0x2406 <__fp_inf>
    225c:	0c 94 b4 12 	jmp	0x2568	; 0x2568 <__fp_szero>
    2260:	5f 3f       	cpi	r21, 0xFF	; 255
    2262:	e4 f3       	brlt	.-8      	; 0x225c <__divsf3_pse+0x6c>
    2264:	98 3e       	cpi	r25, 0xE8	; 232
    2266:	d4 f3       	brlt	.-12     	; 0x225c <__divsf3_pse+0x6c>
    2268:	86 95       	lsr	r24
    226a:	77 95       	ror	r23
    226c:	67 95       	ror	r22
    226e:	b7 95       	ror	r27
    2270:	f7 95       	ror	r31
    2272:	9f 5f       	subi	r25, 0xFF	; 255
    2274:	c9 f7       	brne	.-14     	; 0x2268 <__divsf3_pse+0x78>
    2276:	88 0f       	add	r24, r24
    2278:	91 1d       	adc	r25, r1
    227a:	96 95       	lsr	r25
    227c:	87 95       	ror	r24
    227e:	97 f9       	bld	r25, 7
    2280:	08 95       	ret
    2282:	e1 e0       	ldi	r30, 0x01	; 1
    2284:	66 0f       	add	r22, r22
    2286:	77 1f       	adc	r23, r23
    2288:	88 1f       	adc	r24, r24
    228a:	bb 1f       	adc	r27, r27
    228c:	62 17       	cp	r22, r18
    228e:	73 07       	cpc	r23, r19
    2290:	84 07       	cpc	r24, r20
    2292:	ba 07       	cpc	r27, r26
    2294:	20 f0       	brcs	.+8      	; 0x229e <__divsf3_pse+0xae>
    2296:	62 1b       	sub	r22, r18
    2298:	73 0b       	sbc	r23, r19
    229a:	84 0b       	sbc	r24, r20
    229c:	ba 0b       	sbc	r27, r26
    229e:	ee 1f       	adc	r30, r30
    22a0:	88 f7       	brcc	.-30     	; 0x2284 <__divsf3_pse+0x94>
    22a2:	e0 95       	com	r30
    22a4:	08 95       	ret

000022a6 <__fixunssfsi>:
    22a6:	0e 94 99 12 	call	0x2532	; 0x2532 <__fp_splitA>
    22aa:	88 f0       	brcs	.+34     	; 0x22ce <__fixunssfsi+0x28>
    22ac:	9f 57       	subi	r25, 0x7F	; 127
    22ae:	98 f0       	brcs	.+38     	; 0x22d6 <__fixunssfsi+0x30>
    22b0:	b9 2f       	mov	r27, r25
    22b2:	99 27       	eor	r25, r25
    22b4:	b7 51       	subi	r27, 0x17	; 23
    22b6:	b0 f0       	brcs	.+44     	; 0x22e4 <__fixunssfsi+0x3e>
    22b8:	e1 f0       	breq	.+56     	; 0x22f2 <__fixunssfsi+0x4c>
    22ba:	66 0f       	add	r22, r22
    22bc:	77 1f       	adc	r23, r23
    22be:	88 1f       	adc	r24, r24
    22c0:	99 1f       	adc	r25, r25
    22c2:	1a f0       	brmi	.+6      	; 0x22ca <__fixunssfsi+0x24>
    22c4:	ba 95       	dec	r27
    22c6:	c9 f7       	brne	.-14     	; 0x22ba <__fixunssfsi+0x14>
    22c8:	14 c0       	rjmp	.+40     	; 0x22f2 <__fixunssfsi+0x4c>
    22ca:	b1 30       	cpi	r27, 0x01	; 1
    22cc:	91 f0       	breq	.+36     	; 0x22f2 <__fixunssfsi+0x4c>
    22ce:	0e 94 b3 12 	call	0x2566	; 0x2566 <__fp_zero>
    22d2:	b1 e0       	ldi	r27, 0x01	; 1
    22d4:	08 95       	ret
    22d6:	0c 94 b3 12 	jmp	0x2566	; 0x2566 <__fp_zero>
    22da:	67 2f       	mov	r22, r23
    22dc:	78 2f       	mov	r23, r24
    22de:	88 27       	eor	r24, r24
    22e0:	b8 5f       	subi	r27, 0xF8	; 248
    22e2:	39 f0       	breq	.+14     	; 0x22f2 <__fixunssfsi+0x4c>
    22e4:	b9 3f       	cpi	r27, 0xF9	; 249
    22e6:	cc f3       	brlt	.-14     	; 0x22da <__fixunssfsi+0x34>
    22e8:	86 95       	lsr	r24
    22ea:	77 95       	ror	r23
    22ec:	67 95       	ror	r22
    22ee:	b3 95       	inc	r27
    22f0:	d9 f7       	brne	.-10     	; 0x22e8 <__fixunssfsi+0x42>
    22f2:	3e f4       	brtc	.+14     	; 0x2302 <__fixunssfsi+0x5c>
    22f4:	90 95       	com	r25
    22f6:	80 95       	com	r24
    22f8:	70 95       	com	r23
    22fa:	61 95       	neg	r22
    22fc:	7f 4f       	sbci	r23, 0xFF	; 255
    22fe:	8f 4f       	sbci	r24, 0xFF	; 255
    2300:	9f 4f       	sbci	r25, 0xFF	; 255
    2302:	08 95       	ret

00002304 <__floatunsisf>:
    2304:	e8 94       	clt
    2306:	09 c0       	rjmp	.+18     	; 0x231a <__floatsisf+0x12>

00002308 <__floatsisf>:
    2308:	97 fb       	bst	r25, 7
    230a:	3e f4       	brtc	.+14     	; 0x231a <__floatsisf+0x12>
    230c:	90 95       	com	r25
    230e:	80 95       	com	r24
    2310:	70 95       	com	r23
    2312:	61 95       	neg	r22
    2314:	7f 4f       	sbci	r23, 0xFF	; 255
    2316:	8f 4f       	sbci	r24, 0xFF	; 255
    2318:	9f 4f       	sbci	r25, 0xFF	; 255
    231a:	99 23       	and	r25, r25
    231c:	a9 f0       	breq	.+42     	; 0x2348 <__floatsisf+0x40>
    231e:	f9 2f       	mov	r31, r25
    2320:	96 e9       	ldi	r25, 0x96	; 150
    2322:	bb 27       	eor	r27, r27
    2324:	93 95       	inc	r25
    2326:	f6 95       	lsr	r31
    2328:	87 95       	ror	r24
    232a:	77 95       	ror	r23
    232c:	67 95       	ror	r22
    232e:	b7 95       	ror	r27
    2330:	f1 11       	cpse	r31, r1
    2332:	f8 cf       	rjmp	.-16     	; 0x2324 <__floatsisf+0x1c>
    2334:	fa f4       	brpl	.+62     	; 0x2374 <__floatsisf+0x6c>
    2336:	bb 0f       	add	r27, r27
    2338:	11 f4       	brne	.+4      	; 0x233e <__floatsisf+0x36>
    233a:	60 ff       	sbrs	r22, 0
    233c:	1b c0       	rjmp	.+54     	; 0x2374 <__floatsisf+0x6c>
    233e:	6f 5f       	subi	r22, 0xFF	; 255
    2340:	7f 4f       	sbci	r23, 0xFF	; 255
    2342:	8f 4f       	sbci	r24, 0xFF	; 255
    2344:	9f 4f       	sbci	r25, 0xFF	; 255
    2346:	16 c0       	rjmp	.+44     	; 0x2374 <__floatsisf+0x6c>
    2348:	88 23       	and	r24, r24
    234a:	11 f0       	breq	.+4      	; 0x2350 <__floatsisf+0x48>
    234c:	96 e9       	ldi	r25, 0x96	; 150
    234e:	11 c0       	rjmp	.+34     	; 0x2372 <__floatsisf+0x6a>
    2350:	77 23       	and	r23, r23
    2352:	21 f0       	breq	.+8      	; 0x235c <__floatsisf+0x54>
    2354:	9e e8       	ldi	r25, 0x8E	; 142
    2356:	87 2f       	mov	r24, r23
    2358:	76 2f       	mov	r23, r22
    235a:	05 c0       	rjmp	.+10     	; 0x2366 <__floatsisf+0x5e>
    235c:	66 23       	and	r22, r22
    235e:	71 f0       	breq	.+28     	; 0x237c <__floatsisf+0x74>
    2360:	96 e8       	ldi	r25, 0x86	; 134
    2362:	86 2f       	mov	r24, r22
    2364:	70 e0       	ldi	r23, 0x00	; 0
    2366:	60 e0       	ldi	r22, 0x00	; 0
    2368:	2a f0       	brmi	.+10     	; 0x2374 <__floatsisf+0x6c>
    236a:	9a 95       	dec	r25
    236c:	66 0f       	add	r22, r22
    236e:	77 1f       	adc	r23, r23
    2370:	88 1f       	adc	r24, r24
    2372:	da f7       	brpl	.-10     	; 0x236a <__floatsisf+0x62>
    2374:	88 0f       	add	r24, r24
    2376:	96 95       	lsr	r25
    2378:	87 95       	ror	r24
    237a:	97 f9       	bld	r25, 7
    237c:	08 95       	ret

0000237e <__fp_arccos>:
    237e:	df 93       	push	r29
    2380:	cf 93       	push	r28
    2382:	1f 93       	push	r17
    2384:	0f 93       	push	r16
    2386:	8b 01       	movw	r16, r22
    2388:	ec 01       	movw	r28, r24
    238a:	e8 e6       	ldi	r30, 0x68	; 104
    238c:	f0 e0       	ldi	r31, 0x00	; 0
    238e:	0e 94 0c 12 	call	0x2418	; 0x2418 <__fp_powser>
    2392:	0e 94 6c 12 	call	0x24d8	; 0x24d8 <__fp_round>
    2396:	98 01       	movw	r18, r16
    2398:	ae 01       	movw	r20, r28
    239a:	8b 01       	movw	r16, r22
    239c:	ec 01       	movw	r28, r24
    239e:	60 e0       	ldi	r22, 0x00	; 0
    23a0:	70 e0       	ldi	r23, 0x00	; 0
    23a2:	80 e8       	ldi	r24, 0x80	; 128
    23a4:	9f e3       	ldi	r25, 0x3F	; 63
    23a6:	0e 94 6a 10 	call	0x20d4	; 0x20d4 <__subsf3>
    23aa:	0e 94 8a 13 	call	0x2714	; 0x2714 <sqrt>
    23ae:	98 01       	movw	r18, r16
    23b0:	ae 01       	movw	r20, r28
    23b2:	0f 91       	pop	r16
    23b4:	1f 91       	pop	r17
    23b6:	cf 91       	pop	r28
    23b8:	df 91       	pop	r29
    23ba:	0c 94 d2 12 	jmp	0x25a4	; 0x25a4 <__mulsf3x>

000023be <__fp_cmp>:
    23be:	99 0f       	add	r25, r25
    23c0:	00 08       	sbc	r0, r0
    23c2:	55 0f       	add	r21, r21
    23c4:	aa 0b       	sbc	r26, r26
    23c6:	e0 e8       	ldi	r30, 0x80	; 128
    23c8:	fe ef       	ldi	r31, 0xFE	; 254
    23ca:	16 16       	cp	r1, r22
    23cc:	17 06       	cpc	r1, r23
    23ce:	e8 07       	cpc	r30, r24
    23d0:	f9 07       	cpc	r31, r25
    23d2:	c0 f0       	brcs	.+48     	; 0x2404 <__fp_cmp+0x46>
    23d4:	12 16       	cp	r1, r18
    23d6:	13 06       	cpc	r1, r19
    23d8:	e4 07       	cpc	r30, r20
    23da:	f5 07       	cpc	r31, r21
    23dc:	98 f0       	brcs	.+38     	; 0x2404 <__fp_cmp+0x46>
    23de:	62 1b       	sub	r22, r18
    23e0:	73 0b       	sbc	r23, r19
    23e2:	84 0b       	sbc	r24, r20
    23e4:	95 0b       	sbc	r25, r21
    23e6:	39 f4       	brne	.+14     	; 0x23f6 <__fp_cmp+0x38>
    23e8:	0a 26       	eor	r0, r26
    23ea:	61 f0       	breq	.+24     	; 0x2404 <__fp_cmp+0x46>
    23ec:	23 2b       	or	r18, r19
    23ee:	24 2b       	or	r18, r20
    23f0:	25 2b       	or	r18, r21
    23f2:	21 f4       	brne	.+8      	; 0x23fc <__fp_cmp+0x3e>
    23f4:	08 95       	ret
    23f6:	0a 26       	eor	r0, r26
    23f8:	09 f4       	brne	.+2      	; 0x23fc <__fp_cmp+0x3e>
    23fa:	a1 40       	sbci	r26, 0x01	; 1
    23fc:	a6 95       	lsr	r26
    23fe:	8f ef       	ldi	r24, 0xFF	; 255
    2400:	81 1d       	adc	r24, r1
    2402:	81 1d       	adc	r24, r1
    2404:	08 95       	ret

00002406 <__fp_inf>:
    2406:	97 f9       	bld	r25, 7
    2408:	9f 67       	ori	r25, 0x7F	; 127
    240a:	80 e8       	ldi	r24, 0x80	; 128
    240c:	70 e0       	ldi	r23, 0x00	; 0
    240e:	60 e0       	ldi	r22, 0x00	; 0
    2410:	08 95       	ret

00002412 <__fp_nan>:
    2412:	9f ef       	ldi	r25, 0xFF	; 255
    2414:	80 ec       	ldi	r24, 0xC0	; 192
    2416:	08 95       	ret

00002418 <__fp_powser>:
    2418:	df 93       	push	r29
    241a:	cf 93       	push	r28
    241c:	1f 93       	push	r17
    241e:	0f 93       	push	r16
    2420:	ff 92       	push	r15
    2422:	ef 92       	push	r14
    2424:	df 92       	push	r13
    2426:	7b 01       	movw	r14, r22
    2428:	8c 01       	movw	r16, r24
    242a:	68 94       	set
    242c:	06 c0       	rjmp	.+12     	; 0x243a <__fp_powser+0x22>
    242e:	da 2e       	mov	r13, r26
    2430:	ef 01       	movw	r28, r30
    2432:	0e 94 d2 12 	call	0x25a4	; 0x25a4 <__mulsf3x>
    2436:	fe 01       	movw	r30, r28
    2438:	e8 94       	clt
    243a:	a5 91       	lpm	r26, Z+
    243c:	25 91       	lpm	r18, Z+
    243e:	35 91       	lpm	r19, Z+
    2440:	45 91       	lpm	r20, Z+
    2442:	55 91       	lpm	r21, Z+
    2444:	a6 f3       	brts	.-24     	; 0x242e <__fp_powser+0x16>
    2446:	ef 01       	movw	r28, r30
    2448:	0e 94 82 10 	call	0x2104	; 0x2104 <__addsf3x>
    244c:	fe 01       	movw	r30, r28
    244e:	97 01       	movw	r18, r14
    2450:	a8 01       	movw	r20, r16
    2452:	da 94       	dec	r13
    2454:	69 f7       	brne	.-38     	; 0x2430 <__fp_powser+0x18>
    2456:	df 90       	pop	r13
    2458:	ef 90       	pop	r14
    245a:	ff 90       	pop	r15
    245c:	0f 91       	pop	r16
    245e:	1f 91       	pop	r17
    2460:	cf 91       	pop	r28
    2462:	df 91       	pop	r29
    2464:	08 95       	ret

00002466 <__fp_pscA>:
    2466:	00 24       	eor	r0, r0
    2468:	0a 94       	dec	r0
    246a:	16 16       	cp	r1, r22
    246c:	17 06       	cpc	r1, r23
    246e:	18 06       	cpc	r1, r24
    2470:	09 06       	cpc	r0, r25
    2472:	08 95       	ret

00002474 <__fp_pscB>:
    2474:	00 24       	eor	r0, r0
    2476:	0a 94       	dec	r0
    2478:	12 16       	cp	r1, r18
    247a:	13 06       	cpc	r1, r19
    247c:	14 06       	cpc	r1, r20
    247e:	05 06       	cpc	r0, r21
    2480:	08 95       	ret
    2482:	0c 94 09 12 	jmp	0x2412	; 0x2412 <__fp_nan>

00002486 <__fp_rempio2>:
    2486:	0e 94 99 12 	call	0x2532	; 0x2532 <__fp_splitA>
    248a:	d8 f3       	brcs	.-10     	; 0x2482 <__fp_pscB+0xe>
    248c:	e8 94       	clt
    248e:	e0 e0       	ldi	r30, 0x00	; 0
    2490:	bb 27       	eor	r27, r27
    2492:	9f 57       	subi	r25, 0x7F	; 127
    2494:	f0 f0       	brcs	.+60     	; 0x24d2 <__fp_rempio2+0x4c>
    2496:	2a ed       	ldi	r18, 0xDA	; 218
    2498:	3f e0       	ldi	r19, 0x0F	; 15
    249a:	49 ec       	ldi	r20, 0xC9	; 201
    249c:	06 c0       	rjmp	.+12     	; 0x24aa <__fp_rempio2+0x24>
    249e:	ee 0f       	add	r30, r30
    24a0:	bb 0f       	add	r27, r27
    24a2:	66 1f       	adc	r22, r22
    24a4:	77 1f       	adc	r23, r23
    24a6:	88 1f       	adc	r24, r24
    24a8:	28 f0       	brcs	.+10     	; 0x24b4 <__fp_rempio2+0x2e>
    24aa:	b2 3a       	cpi	r27, 0xA2	; 162
    24ac:	62 07       	cpc	r22, r18
    24ae:	73 07       	cpc	r23, r19
    24b0:	84 07       	cpc	r24, r20
    24b2:	28 f0       	brcs	.+10     	; 0x24be <__fp_rempio2+0x38>
    24b4:	b2 5a       	subi	r27, 0xA2	; 162
    24b6:	62 0b       	sbc	r22, r18
    24b8:	73 0b       	sbc	r23, r19
    24ba:	84 0b       	sbc	r24, r20
    24bc:	e3 95       	inc	r30
    24be:	9a 95       	dec	r25
    24c0:	72 f7       	brpl	.-36     	; 0x249e <__fp_rempio2+0x18>
    24c2:	80 38       	cpi	r24, 0x80	; 128
    24c4:	30 f4       	brcc	.+12     	; 0x24d2 <__fp_rempio2+0x4c>
    24c6:	9a 95       	dec	r25
    24c8:	bb 0f       	add	r27, r27
    24ca:	66 1f       	adc	r22, r22
    24cc:	77 1f       	adc	r23, r23
    24ce:	88 1f       	adc	r24, r24
    24d0:	d2 f7       	brpl	.-12     	; 0x24c6 <__fp_rempio2+0x40>
    24d2:	90 48       	sbci	r25, 0x80	; 128
    24d4:	0c 94 0b 14 	jmp	0x2816	; 0x2816 <__fp_mpack_finite>

000024d8 <__fp_round>:
    24d8:	09 2e       	mov	r0, r25
    24da:	03 94       	inc	r0
    24dc:	00 0c       	add	r0, r0
    24de:	11 f4       	brne	.+4      	; 0x24e4 <__fp_round+0xc>
    24e0:	88 23       	and	r24, r24
    24e2:	52 f0       	brmi	.+20     	; 0x24f8 <__fp_round+0x20>
    24e4:	bb 0f       	add	r27, r27
    24e6:	40 f4       	brcc	.+16     	; 0x24f8 <__fp_round+0x20>
    24e8:	bf 2b       	or	r27, r31
    24ea:	11 f4       	brne	.+4      	; 0x24f0 <__fp_round+0x18>
    24ec:	60 ff       	sbrs	r22, 0
    24ee:	04 c0       	rjmp	.+8      	; 0x24f8 <__fp_round+0x20>
    24f0:	6f 5f       	subi	r22, 0xFF	; 255
    24f2:	7f 4f       	sbci	r23, 0xFF	; 255
    24f4:	8f 4f       	sbci	r24, 0xFF	; 255
    24f6:	9f 4f       	sbci	r25, 0xFF	; 255
    24f8:	08 95       	ret

000024fa <__fp_sinus>:
    24fa:	ef 93       	push	r30
    24fc:	e0 ff       	sbrs	r30, 0
    24fe:	07 c0       	rjmp	.+14     	; 0x250e <__fp_sinus+0x14>
    2500:	a2 ea       	ldi	r26, 0xA2	; 162
    2502:	2a ed       	ldi	r18, 0xDA	; 218
    2504:	3f e0       	ldi	r19, 0x0F	; 15
    2506:	49 ec       	ldi	r20, 0xC9	; 201
    2508:	5f eb       	ldi	r21, 0xBF	; 191
    250a:	0e 94 82 10 	call	0x2104	; 0x2104 <__addsf3x>
    250e:	0e 94 6c 12 	call	0x24d8	; 0x24d8 <__fp_round>
    2512:	0f 90       	pop	r0
    2514:	03 94       	inc	r0
    2516:	01 fc       	sbrc	r0, 1
    2518:	90 58       	subi	r25, 0x80	; 128
    251a:	e0 e9       	ldi	r30, 0x90	; 144
    251c:	f0 e0       	ldi	r31, 0x00	; 0
    251e:	0c 94 1e 14 	jmp	0x283c	; 0x283c <__fp_powsodd>

00002522 <__fp_split3>:
    2522:	57 fd       	sbrc	r21, 7
    2524:	90 58       	subi	r25, 0x80	; 128
    2526:	44 0f       	add	r20, r20
    2528:	55 1f       	adc	r21, r21
    252a:	59 f0       	breq	.+22     	; 0x2542 <__fp_splitA+0x10>
    252c:	5f 3f       	cpi	r21, 0xFF	; 255
    252e:	71 f0       	breq	.+28     	; 0x254c <__fp_splitA+0x1a>
    2530:	47 95       	ror	r20

00002532 <__fp_splitA>:
    2532:	88 0f       	add	r24, r24
    2534:	97 fb       	bst	r25, 7
    2536:	99 1f       	adc	r25, r25
    2538:	61 f0       	breq	.+24     	; 0x2552 <__fp_splitA+0x20>
    253a:	9f 3f       	cpi	r25, 0xFF	; 255
    253c:	79 f0       	breq	.+30     	; 0x255c <__fp_splitA+0x2a>
    253e:	87 95       	ror	r24
    2540:	08 95       	ret
    2542:	12 16       	cp	r1, r18
    2544:	13 06       	cpc	r1, r19
    2546:	14 06       	cpc	r1, r20
    2548:	55 1f       	adc	r21, r21
    254a:	f2 cf       	rjmp	.-28     	; 0x2530 <__fp_split3+0xe>
    254c:	46 95       	lsr	r20
    254e:	f1 df       	rcall	.-30     	; 0x2532 <__fp_splitA>
    2550:	08 c0       	rjmp	.+16     	; 0x2562 <__fp_splitA+0x30>
    2552:	16 16       	cp	r1, r22
    2554:	17 06       	cpc	r1, r23
    2556:	18 06       	cpc	r1, r24
    2558:	99 1f       	adc	r25, r25
    255a:	f1 cf       	rjmp	.-30     	; 0x253e <__fp_splitA+0xc>
    255c:	86 95       	lsr	r24
    255e:	71 05       	cpc	r23, r1
    2560:	61 05       	cpc	r22, r1
    2562:	08 94       	sec
    2564:	08 95       	ret

00002566 <__fp_zero>:
    2566:	e8 94       	clt

00002568 <__fp_szero>:
    2568:	bb 27       	eor	r27, r27
    256a:	66 27       	eor	r22, r22
    256c:	77 27       	eor	r23, r23
    256e:	cb 01       	movw	r24, r22
    2570:	97 f9       	bld	r25, 7
    2572:	08 95       	ret

00002574 <__gesf2>:
    2574:	0e 94 df 11 	call	0x23be	; 0x23be <__fp_cmp>
    2578:	08 f4       	brcc	.+2      	; 0x257c <__gesf2+0x8>
    257a:	8f ef       	ldi	r24, 0xFF	; 255
    257c:	08 95       	ret

0000257e <__mulsf3>:
    257e:	0e 94 d2 12 	call	0x25a4	; 0x25a4 <__mulsf3x>
    2582:	0c 94 6c 12 	jmp	0x24d8	; 0x24d8 <__fp_round>
    2586:	0e 94 33 12 	call	0x2466	; 0x2466 <__fp_pscA>
    258a:	38 f0       	brcs	.+14     	; 0x259a <__mulsf3+0x1c>
    258c:	0e 94 3a 12 	call	0x2474	; 0x2474 <__fp_pscB>
    2590:	20 f0       	brcs	.+8      	; 0x259a <__mulsf3+0x1c>
    2592:	95 23       	and	r25, r21
    2594:	11 f0       	breq	.+4      	; 0x259a <__mulsf3+0x1c>
    2596:	0c 94 03 12 	jmp	0x2406	; 0x2406 <__fp_inf>
    259a:	0c 94 09 12 	jmp	0x2412	; 0x2412 <__fp_nan>
    259e:	11 24       	eor	r1, r1
    25a0:	0c 94 b4 12 	jmp	0x2568	; 0x2568 <__fp_szero>

000025a4 <__mulsf3x>:
    25a4:	0e 94 91 12 	call	0x2522	; 0x2522 <__fp_split3>
    25a8:	70 f3       	brcs	.-36     	; 0x2586 <__mulsf3+0x8>

000025aa <__mulsf3_pse>:
    25aa:	95 9f       	mul	r25, r21
    25ac:	c1 f3       	breq	.-16     	; 0x259e <__mulsf3+0x20>
    25ae:	95 0f       	add	r25, r21
    25b0:	50 e0       	ldi	r21, 0x00	; 0
    25b2:	55 1f       	adc	r21, r21
    25b4:	62 9f       	mul	r22, r18
    25b6:	f0 01       	movw	r30, r0
    25b8:	72 9f       	mul	r23, r18
    25ba:	bb 27       	eor	r27, r27
    25bc:	f0 0d       	add	r31, r0
    25be:	b1 1d       	adc	r27, r1
    25c0:	63 9f       	mul	r22, r19
    25c2:	aa 27       	eor	r26, r26
    25c4:	f0 0d       	add	r31, r0
    25c6:	b1 1d       	adc	r27, r1
    25c8:	aa 1f       	adc	r26, r26
    25ca:	64 9f       	mul	r22, r20
    25cc:	66 27       	eor	r22, r22
    25ce:	b0 0d       	add	r27, r0
    25d0:	a1 1d       	adc	r26, r1
    25d2:	66 1f       	adc	r22, r22
    25d4:	82 9f       	mul	r24, r18
    25d6:	22 27       	eor	r18, r18
    25d8:	b0 0d       	add	r27, r0
    25da:	a1 1d       	adc	r26, r1
    25dc:	62 1f       	adc	r22, r18
    25de:	73 9f       	mul	r23, r19
    25e0:	b0 0d       	add	r27, r0
    25e2:	a1 1d       	adc	r26, r1
    25e4:	62 1f       	adc	r22, r18
    25e6:	83 9f       	mul	r24, r19
    25e8:	a0 0d       	add	r26, r0
    25ea:	61 1d       	adc	r22, r1
    25ec:	22 1f       	adc	r18, r18
    25ee:	74 9f       	mul	r23, r20
    25f0:	33 27       	eor	r19, r19
    25f2:	a0 0d       	add	r26, r0
    25f4:	61 1d       	adc	r22, r1
    25f6:	23 1f       	adc	r18, r19
    25f8:	84 9f       	mul	r24, r20
    25fa:	60 0d       	add	r22, r0
    25fc:	21 1d       	adc	r18, r1
    25fe:	82 2f       	mov	r24, r18
    2600:	76 2f       	mov	r23, r22
    2602:	6a 2f       	mov	r22, r26
    2604:	11 24       	eor	r1, r1
    2606:	9f 57       	subi	r25, 0x7F	; 127
    2608:	50 40       	sbci	r21, 0x00	; 0
    260a:	9a f0       	brmi	.+38     	; 0x2632 <__mulsf3_pse+0x88>
    260c:	f1 f0       	breq	.+60     	; 0x264a <__mulsf3_pse+0xa0>
    260e:	88 23       	and	r24, r24
    2610:	4a f0       	brmi	.+18     	; 0x2624 <__mulsf3_pse+0x7a>
    2612:	ee 0f       	add	r30, r30
    2614:	ff 1f       	adc	r31, r31
    2616:	bb 1f       	adc	r27, r27
    2618:	66 1f       	adc	r22, r22
    261a:	77 1f       	adc	r23, r23
    261c:	88 1f       	adc	r24, r24
    261e:	91 50       	subi	r25, 0x01	; 1
    2620:	50 40       	sbci	r21, 0x00	; 0
    2622:	a9 f7       	brne	.-22     	; 0x260e <__mulsf3_pse+0x64>
    2624:	9e 3f       	cpi	r25, 0xFE	; 254
    2626:	51 05       	cpc	r21, r1
    2628:	80 f0       	brcs	.+32     	; 0x264a <__mulsf3_pse+0xa0>
    262a:	0c 94 03 12 	jmp	0x2406	; 0x2406 <__fp_inf>
    262e:	0c 94 b4 12 	jmp	0x2568	; 0x2568 <__fp_szero>
    2632:	5f 3f       	cpi	r21, 0xFF	; 255
    2634:	e4 f3       	brlt	.-8      	; 0x262e <__mulsf3_pse+0x84>
    2636:	98 3e       	cpi	r25, 0xE8	; 232
    2638:	d4 f3       	brlt	.-12     	; 0x262e <__mulsf3_pse+0x84>
    263a:	86 95       	lsr	r24
    263c:	77 95       	ror	r23
    263e:	67 95       	ror	r22
    2640:	b7 95       	ror	r27
    2642:	f7 95       	ror	r31
    2644:	e7 95       	ror	r30
    2646:	9f 5f       	subi	r25, 0xFF	; 255
    2648:	c1 f7       	brne	.-16     	; 0x263a <__mulsf3_pse+0x90>
    264a:	fe 2b       	or	r31, r30
    264c:	88 0f       	add	r24, r24
    264e:	91 1d       	adc	r25, r1
    2650:	96 95       	lsr	r25
    2652:	87 95       	ror	r24
    2654:	97 f9       	bld	r25, 7
    2656:	08 95       	ret

00002658 <pow>:
    2658:	fa 01       	movw	r30, r20
    265a:	ee 0f       	add	r30, r30
    265c:	ff 1f       	adc	r31, r31
    265e:	30 96       	adiw	r30, 0x00	; 0
    2660:	21 05       	cpc	r18, r1
    2662:	31 05       	cpc	r19, r1
    2664:	a1 f1       	breq	.+104    	; 0x26ce <pow+0x76>
    2666:	61 15       	cp	r22, r1
    2668:	71 05       	cpc	r23, r1
    266a:	61 f4       	brne	.+24     	; 0x2684 <pow+0x2c>
    266c:	80 38       	cpi	r24, 0x80	; 128
    266e:	bf e3       	ldi	r27, 0x3F	; 63
    2670:	9b 07       	cpc	r25, r27
    2672:	49 f1       	breq	.+82     	; 0x26c6 <pow+0x6e>
    2674:	68 94       	set
    2676:	90 38       	cpi	r25, 0x80	; 128
    2678:	81 05       	cpc	r24, r1
    267a:	61 f0       	breq	.+24     	; 0x2694 <pow+0x3c>
    267c:	80 38       	cpi	r24, 0x80	; 128
    267e:	bf ef       	ldi	r27, 0xFF	; 255
    2680:	9b 07       	cpc	r25, r27
    2682:	41 f0       	breq	.+16     	; 0x2694 <pow+0x3c>
    2684:	99 23       	and	r25, r25
    2686:	4a f5       	brpl	.+82     	; 0x26da <pow+0x82>
    2688:	ff 3f       	cpi	r31, 0xFF	; 255
    268a:	e1 05       	cpc	r30, r1
    268c:	31 05       	cpc	r19, r1
    268e:	21 05       	cpc	r18, r1
    2690:	19 f1       	breq	.+70     	; 0x26d8 <pow+0x80>
    2692:	e8 94       	clt
    2694:	08 94       	sec
    2696:	e7 95       	ror	r30
    2698:	d9 01       	movw	r26, r18
    269a:	aa 23       	and	r26, r26
    269c:	29 f4       	brne	.+10     	; 0x26a8 <pow+0x50>
    269e:	ab 2f       	mov	r26, r27
    26a0:	be 2f       	mov	r27, r30
    26a2:	f8 5f       	subi	r31, 0xF8	; 248
    26a4:	d0 f3       	brcs	.-12     	; 0x269a <pow+0x42>
    26a6:	10 c0       	rjmp	.+32     	; 0x26c8 <pow+0x70>
    26a8:	ff 5f       	subi	r31, 0xFF	; 255
    26aa:	70 f4       	brcc	.+28     	; 0x26c8 <pow+0x70>
    26ac:	a6 95       	lsr	r26
    26ae:	e0 f7       	brcc	.-8      	; 0x26a8 <pow+0x50>
    26b0:	f7 39       	cpi	r31, 0x97	; 151
    26b2:	50 f0       	brcs	.+20     	; 0x26c8 <pow+0x70>
    26b4:	19 f0       	breq	.+6      	; 0x26bc <pow+0x64>
    26b6:	ff 3a       	cpi	r31, 0xAF	; 175
    26b8:	38 f4       	brcc	.+14     	; 0x26c8 <pow+0x70>
    26ba:	9f 77       	andi	r25, 0x7F	; 127
    26bc:	9f 93       	push	r25
    26be:	0d d0       	rcall	.+26     	; 0x26da <pow+0x82>
    26c0:	0f 90       	pop	r0
    26c2:	07 fc       	sbrc	r0, 7
    26c4:	90 58       	subi	r25, 0x80	; 128
    26c6:	08 95       	ret
    26c8:	46 f0       	brts	.+16     	; 0x26da <pow+0x82>
    26ca:	0c 94 09 12 	jmp	0x2412	; 0x2412 <__fp_nan>
    26ce:	60 e0       	ldi	r22, 0x00	; 0
    26d0:	70 e0       	ldi	r23, 0x00	; 0
    26d2:	80 e8       	ldi	r24, 0x80	; 128
    26d4:	9f e3       	ldi	r25, 0x3F	; 63
    26d6:	08 95       	ret
    26d8:	4f e7       	ldi	r20, 0x7F	; 127
    26da:	9f 77       	andi	r25, 0x7F	; 127
    26dc:	5f 93       	push	r21
    26de:	4f 93       	push	r20
    26e0:	3f 93       	push	r19
    26e2:	2f 93       	push	r18
    26e4:	0e 94 7c 14 	call	0x28f8	; 0x28f8 <log>
    26e8:	2f 91       	pop	r18
    26ea:	3f 91       	pop	r19
    26ec:	4f 91       	pop	r20
    26ee:	5f 91       	pop	r21
    26f0:	0e 94 bf 12 	call	0x257e	; 0x257e <__mulsf3>
    26f4:	0c 94 d7 13 	jmp	0x27ae	; 0x27ae <exp>

000026f8 <sin>:
    26f8:	9f 93       	push	r25
    26fa:	0e 94 43 12 	call	0x2486	; 0x2486 <__fp_rempio2>
    26fe:	0f 90       	pop	r0
    2700:	07 fc       	sbrc	r0, 7
    2702:	ee 5f       	subi	r30, 0xFE	; 254
    2704:	0c 94 7d 12 	jmp	0x24fa	; 0x24fa <__fp_sinus>
    2708:	19 f4       	brne	.+6      	; 0x2710 <sin+0x18>
    270a:	16 f4       	brtc	.+4      	; 0x2710 <sin+0x18>
    270c:	0c 94 09 12 	jmp	0x2412	; 0x2412 <__fp_nan>
    2710:	0c 94 09 14 	jmp	0x2812	; 0x2812 <__fp_mpack>

00002714 <sqrt>:
    2714:	0e 94 99 12 	call	0x2532	; 0x2532 <__fp_splitA>
    2718:	b8 f3       	brcs	.-18     	; 0x2708 <sin+0x10>
    271a:	99 23       	and	r25, r25
    271c:	c9 f3       	breq	.-14     	; 0x2710 <sin+0x18>
    271e:	b6 f3       	brts	.-20     	; 0x270c <sin+0x14>
    2720:	9f 57       	subi	r25, 0x7F	; 127
    2722:	55 0b       	sbc	r21, r21
    2724:	87 ff       	sbrs	r24, 7
    2726:	0e 94 17 14 	call	0x282e	; 0x282e <__fp_norm2>
    272a:	00 24       	eor	r0, r0
    272c:	a0 e6       	ldi	r26, 0x60	; 96
    272e:	40 ea       	ldi	r20, 0xA0	; 160
    2730:	90 01       	movw	r18, r0
    2732:	80 58       	subi	r24, 0x80	; 128
    2734:	56 95       	lsr	r21
    2736:	97 95       	ror	r25
    2738:	28 f4       	brcc	.+10     	; 0x2744 <sqrt+0x30>
    273a:	80 5c       	subi	r24, 0xC0	; 192
    273c:	66 0f       	add	r22, r22
    273e:	77 1f       	adc	r23, r23
    2740:	88 1f       	adc	r24, r24
    2742:	20 f0       	brcs	.+8      	; 0x274c <sqrt+0x38>
    2744:	26 17       	cp	r18, r22
    2746:	37 07       	cpc	r19, r23
    2748:	48 07       	cpc	r20, r24
    274a:	30 f4       	brcc	.+12     	; 0x2758 <sqrt+0x44>
    274c:	62 1b       	sub	r22, r18
    274e:	73 0b       	sbc	r23, r19
    2750:	84 0b       	sbc	r24, r20
    2752:	20 29       	or	r18, r0
    2754:	31 29       	or	r19, r1
    2756:	4a 2b       	or	r20, r26
    2758:	a6 95       	lsr	r26
    275a:	17 94       	ror	r1
    275c:	07 94       	ror	r0
    275e:	20 25       	eor	r18, r0
    2760:	31 25       	eor	r19, r1
    2762:	4a 27       	eor	r20, r26
    2764:	58 f7       	brcc	.-42     	; 0x273c <sqrt+0x28>
    2766:	66 0f       	add	r22, r22
    2768:	77 1f       	adc	r23, r23
    276a:	88 1f       	adc	r24, r24
    276c:	20 f0       	brcs	.+8      	; 0x2776 <sqrt+0x62>
    276e:	26 17       	cp	r18, r22
    2770:	37 07       	cpc	r19, r23
    2772:	48 07       	cpc	r20, r24
    2774:	30 f4       	brcc	.+12     	; 0x2782 <sqrt+0x6e>
    2776:	62 0b       	sbc	r22, r18
    2778:	73 0b       	sbc	r23, r19
    277a:	84 0b       	sbc	r24, r20
    277c:	20 0d       	add	r18, r0
    277e:	31 1d       	adc	r19, r1
    2780:	41 1d       	adc	r20, r1
    2782:	a0 95       	com	r26
    2784:	81 f7       	brne	.-32     	; 0x2766 <sqrt+0x52>
    2786:	b9 01       	movw	r22, r18
    2788:	84 2f       	mov	r24, r20
    278a:	91 58       	subi	r25, 0x81	; 129
    278c:	88 0f       	add	r24, r24
    278e:	96 95       	lsr	r25
    2790:	87 95       	ror	r24
    2792:	08 95       	ret

00002794 <__unordsf2>:
    2794:	0e 94 df 11 	call	0x23be	; 0x23be <__fp_cmp>
    2798:	88 0b       	sbc	r24, r24
    279a:	99 0b       	sbc	r25, r25
    279c:	08 95       	ret
    279e:	29 f4       	brne	.+10     	; 0x27aa <__unordsf2+0x16>
    27a0:	16 f0       	brts	.+4      	; 0x27a6 <__unordsf2+0x12>
    27a2:	0c 94 03 12 	jmp	0x2406	; 0x2406 <__fp_inf>
    27a6:	0c 94 b3 12 	jmp	0x2566	; 0x2566 <__fp_zero>
    27aa:	0c 94 09 12 	jmp	0x2412	; 0x2412 <__fp_nan>

000027ae <exp>:
    27ae:	0e 94 99 12 	call	0x2532	; 0x2532 <__fp_splitA>
    27b2:	a8 f3       	brcs	.-22     	; 0x279e <__unordsf2+0xa>
    27b4:	96 38       	cpi	r25, 0x86	; 134
    27b6:	a0 f7       	brcc	.-24     	; 0x27a0 <__unordsf2+0xc>
    27b8:	07 f8       	bld	r0, 7
    27ba:	0f 92       	push	r0
    27bc:	e8 94       	clt
    27be:	2b e3       	ldi	r18, 0x3B	; 59
    27c0:	3a ea       	ldi	r19, 0xAA	; 170
    27c2:	48 eb       	ldi	r20, 0xB8	; 184
    27c4:	5f e7       	ldi	r21, 0x7F	; 127
    27c6:	0e 94 d5 12 	call	0x25aa	; 0x25aa <__mulsf3_pse>
    27ca:	0f 92       	push	r0
    27cc:	0f 92       	push	r0
    27ce:	0f 92       	push	r0
    27d0:	4d b7       	in	r20, 0x3d	; 61
    27d2:	5e b7       	in	r21, 0x3e	; 62
    27d4:	0f 92       	push	r0
    27d6:	0e 94 c4 14 	call	0x2988	; 0x2988 <modf>
    27da:	ee ea       	ldi	r30, 0xAE	; 174
    27dc:	f0 e0       	ldi	r31, 0x00	; 0
    27de:	0e 94 0c 12 	call	0x2418	; 0x2418 <__fp_powser>
    27e2:	4f 91       	pop	r20
    27e4:	5f 91       	pop	r21
    27e6:	ef 91       	pop	r30
    27e8:	ff 91       	pop	r31
    27ea:	e5 95       	asr	r30
    27ec:	ee 1f       	adc	r30, r30
    27ee:	ff 1f       	adc	r31, r31
    27f0:	49 f0       	breq	.+18     	; 0x2804 <exp+0x56>
    27f2:	fe 57       	subi	r31, 0x7E	; 126
    27f4:	e0 68       	ori	r30, 0x80	; 128
    27f6:	44 27       	eor	r20, r20
    27f8:	ee 0f       	add	r30, r30
    27fa:	44 1f       	adc	r20, r20
    27fc:	fa 95       	dec	r31
    27fe:	e1 f7       	brne	.-8      	; 0x27f8 <exp+0x4a>
    2800:	41 95       	neg	r20
    2802:	55 0b       	sbc	r21, r21
    2804:	0e 94 3e 14 	call	0x287c	; 0x287c <ldexp>
    2808:	0f 90       	pop	r0
    280a:	07 fe       	sbrs	r0, 7
    280c:	0c 94 32 14 	jmp	0x2864	; 0x2864 <inverse>
    2810:	08 95       	ret

00002812 <__fp_mpack>:
    2812:	9f 3f       	cpi	r25, 0xFF	; 255
    2814:	31 f0       	breq	.+12     	; 0x2822 <__fp_mpack_finite+0xc>

00002816 <__fp_mpack_finite>:
    2816:	91 50       	subi	r25, 0x01	; 1
    2818:	20 f4       	brcc	.+8      	; 0x2822 <__fp_mpack_finite+0xc>
    281a:	87 95       	ror	r24
    281c:	77 95       	ror	r23
    281e:	67 95       	ror	r22
    2820:	b7 95       	ror	r27
    2822:	88 0f       	add	r24, r24
    2824:	91 1d       	adc	r25, r1
    2826:	96 95       	lsr	r25
    2828:	87 95       	ror	r24
    282a:	97 f9       	bld	r25, 7
    282c:	08 95       	ret

0000282e <__fp_norm2>:
    282e:	91 50       	subi	r25, 0x01	; 1
    2830:	50 40       	sbci	r21, 0x00	; 0
    2832:	66 0f       	add	r22, r22
    2834:	77 1f       	adc	r23, r23
    2836:	88 1f       	adc	r24, r24
    2838:	d2 f7       	brpl	.-12     	; 0x282e <__fp_norm2>
    283a:	08 95       	ret

0000283c <__fp_powsodd>:
    283c:	9f 93       	push	r25
    283e:	8f 93       	push	r24
    2840:	7f 93       	push	r23
    2842:	6f 93       	push	r22
    2844:	ff 93       	push	r31
    2846:	ef 93       	push	r30
    2848:	9b 01       	movw	r18, r22
    284a:	ac 01       	movw	r20, r24
    284c:	0e 94 bf 12 	call	0x257e	; 0x257e <__mulsf3>
    2850:	ef 91       	pop	r30
    2852:	ff 91       	pop	r31
    2854:	0e 94 0c 12 	call	0x2418	; 0x2418 <__fp_powser>
    2858:	2f 91       	pop	r18
    285a:	3f 91       	pop	r19
    285c:	4f 91       	pop	r20
    285e:	5f 91       	pop	r21
    2860:	0c 94 bf 12 	jmp	0x257e	; 0x257e <__mulsf3>

00002864 <inverse>:
    2864:	9b 01       	movw	r18, r22
    2866:	ac 01       	movw	r20, r24
    2868:	60 e0       	ldi	r22, 0x00	; 0
    286a:	70 e0       	ldi	r23, 0x00	; 0
    286c:	80 e8       	ldi	r24, 0x80	; 128
    286e:	9f e3       	ldi	r25, 0x3F	; 63
    2870:	0c 94 e1 10 	jmp	0x21c2	; 0x21c2 <__divsf3>
    2874:	0c 94 03 12 	jmp	0x2406	; 0x2406 <__fp_inf>
    2878:	0c 94 09 14 	jmp	0x2812	; 0x2812 <__fp_mpack>

0000287c <ldexp>:
    287c:	0e 94 99 12 	call	0x2532	; 0x2532 <__fp_splitA>
    2880:	d8 f3       	brcs	.-10     	; 0x2878 <inverse+0x14>
    2882:	99 23       	and	r25, r25
    2884:	c9 f3       	breq	.-14     	; 0x2878 <inverse+0x14>
    2886:	94 0f       	add	r25, r20
    2888:	51 1d       	adc	r21, r1
    288a:	a3 f3       	brvs	.-24     	; 0x2874 <inverse+0x10>
    288c:	91 50       	subi	r25, 0x01	; 1
    288e:	50 40       	sbci	r21, 0x00	; 0
    2890:	94 f0       	brlt	.+36     	; 0x28b6 <ldexp+0x3a>
    2892:	59 f0       	breq	.+22     	; 0x28aa <ldexp+0x2e>
    2894:	88 23       	and	r24, r24
    2896:	32 f0       	brmi	.+12     	; 0x28a4 <ldexp+0x28>
    2898:	66 0f       	add	r22, r22
    289a:	77 1f       	adc	r23, r23
    289c:	88 1f       	adc	r24, r24
    289e:	91 50       	subi	r25, 0x01	; 1
    28a0:	50 40       	sbci	r21, 0x00	; 0
    28a2:	c1 f7       	brne	.-16     	; 0x2894 <ldexp+0x18>
    28a4:	9e 3f       	cpi	r25, 0xFE	; 254
    28a6:	51 05       	cpc	r21, r1
    28a8:	2c f7       	brge	.-54     	; 0x2874 <inverse+0x10>
    28aa:	88 0f       	add	r24, r24
    28ac:	91 1d       	adc	r25, r1
    28ae:	96 95       	lsr	r25
    28b0:	87 95       	ror	r24
    28b2:	97 f9       	bld	r25, 7
    28b4:	08 95       	ret
    28b6:	5f 3f       	cpi	r21, 0xFF	; 255
    28b8:	ac f0       	brlt	.+42     	; 0x28e4 <ldexp+0x68>
    28ba:	98 3e       	cpi	r25, 0xE8	; 232
    28bc:	9c f0       	brlt	.+38     	; 0x28e4 <ldexp+0x68>
    28be:	bb 27       	eor	r27, r27
    28c0:	86 95       	lsr	r24
    28c2:	77 95       	ror	r23
    28c4:	67 95       	ror	r22
    28c6:	b7 95       	ror	r27
    28c8:	08 f4       	brcc	.+2      	; 0x28cc <ldexp+0x50>
    28ca:	b1 60       	ori	r27, 0x01	; 1
    28cc:	93 95       	inc	r25
    28ce:	c1 f7       	brne	.-16     	; 0x28c0 <ldexp+0x44>
    28d0:	bb 0f       	add	r27, r27
    28d2:	58 f7       	brcc	.-42     	; 0x28aa <ldexp+0x2e>
    28d4:	11 f4       	brne	.+4      	; 0x28da <ldexp+0x5e>
    28d6:	60 ff       	sbrs	r22, 0
    28d8:	e8 cf       	rjmp	.-48     	; 0x28aa <ldexp+0x2e>
    28da:	6f 5f       	subi	r22, 0xFF	; 255
    28dc:	7f 4f       	sbci	r23, 0xFF	; 255
    28de:	8f 4f       	sbci	r24, 0xFF	; 255
    28e0:	9f 4f       	sbci	r25, 0xFF	; 255
    28e2:	e3 cf       	rjmp	.-58     	; 0x28aa <ldexp+0x2e>
    28e4:	0c 94 b4 12 	jmp	0x2568	; 0x2568 <__fp_szero>
    28e8:	16 f0       	brts	.+4      	; 0x28ee <ldexp+0x72>
    28ea:	0c 94 09 14 	jmp	0x2812	; 0x2812 <__fp_mpack>
    28ee:	0c 94 09 12 	jmp	0x2412	; 0x2412 <__fp_nan>
    28f2:	68 94       	set
    28f4:	0c 94 03 12 	jmp	0x2406	; 0x2406 <__fp_inf>

000028f8 <log>:
    28f8:	0e 94 99 12 	call	0x2532	; 0x2532 <__fp_splitA>
    28fc:	a8 f3       	brcs	.-22     	; 0x28e8 <ldexp+0x6c>
    28fe:	99 23       	and	r25, r25
    2900:	c1 f3       	breq	.-16     	; 0x28f2 <ldexp+0x76>
    2902:	ae f3       	brts	.-22     	; 0x28ee <ldexp+0x72>
    2904:	df 93       	push	r29
    2906:	cf 93       	push	r28
    2908:	1f 93       	push	r17
    290a:	0f 93       	push	r16
    290c:	ff 92       	push	r15
    290e:	c9 2f       	mov	r28, r25
    2910:	dd 27       	eor	r29, r29
    2912:	88 23       	and	r24, r24
    2914:	2a f0       	brmi	.+10     	; 0x2920 <log+0x28>
    2916:	21 97       	sbiw	r28, 0x01	; 1
    2918:	66 0f       	add	r22, r22
    291a:	77 1f       	adc	r23, r23
    291c:	88 1f       	adc	r24, r24
    291e:	da f7       	brpl	.-10     	; 0x2916 <log+0x1e>
    2920:	20 e0       	ldi	r18, 0x00	; 0
    2922:	30 e0       	ldi	r19, 0x00	; 0
    2924:	40 e8       	ldi	r20, 0x80	; 128
    2926:	5f eb       	ldi	r21, 0xBF	; 191
    2928:	9f e3       	ldi	r25, 0x3F	; 63
    292a:	88 39       	cpi	r24, 0x98	; 152
    292c:	20 f0       	brcs	.+8      	; 0x2936 <log+0x3e>
    292e:	80 3e       	cpi	r24, 0xE0	; 224
    2930:	38 f0       	brcs	.+14     	; 0x2940 <log+0x48>
    2932:	21 96       	adiw	r28, 0x01	; 1
    2934:	8f 77       	andi	r24, 0x7F	; 127
    2936:	0e 94 6b 10 	call	0x20d6	; 0x20d6 <__addsf3>
    293a:	e6 ed       	ldi	r30, 0xD6	; 214
    293c:	f0 e0       	ldi	r31, 0x00	; 0
    293e:	04 c0       	rjmp	.+8      	; 0x2948 <log+0x50>
    2940:	0e 94 6b 10 	call	0x20d6	; 0x20d6 <__addsf3>
    2944:	e3 e0       	ldi	r30, 0x03	; 3
    2946:	f1 e0       	ldi	r31, 0x01	; 1
    2948:	0e 94 0c 12 	call	0x2418	; 0x2418 <__fp_powser>
    294c:	8b 01       	movw	r16, r22
    294e:	be 01       	movw	r22, r28
    2950:	ec 01       	movw	r28, r24
    2952:	fb 2e       	mov	r15, r27
    2954:	6f 57       	subi	r22, 0x7F	; 127
    2956:	71 09       	sbc	r23, r1
    2958:	75 95       	asr	r23
    295a:	77 1f       	adc	r23, r23
    295c:	88 0b       	sbc	r24, r24
    295e:	99 0b       	sbc	r25, r25
    2960:	0e 94 84 11 	call	0x2308	; 0x2308 <__floatsisf>
    2964:	28 e1       	ldi	r18, 0x18	; 24
    2966:	32 e7       	ldi	r19, 0x72	; 114
    2968:	41 e3       	ldi	r20, 0x31	; 49
    296a:	5f e3       	ldi	r21, 0x3F	; 63
    296c:	0e 94 d2 12 	call	0x25a4	; 0x25a4 <__mulsf3x>
    2970:	af 2d       	mov	r26, r15
    2972:	98 01       	movw	r18, r16
    2974:	ae 01       	movw	r20, r28
    2976:	ff 90       	pop	r15
    2978:	0f 91       	pop	r16
    297a:	1f 91       	pop	r17
    297c:	cf 91       	pop	r28
    297e:	df 91       	pop	r29
    2980:	0e 94 82 10 	call	0x2104	; 0x2104 <__addsf3x>
    2984:	0c 94 6c 12 	jmp	0x24d8	; 0x24d8 <__fp_round>

00002988 <modf>:
    2988:	fa 01       	movw	r30, r20
    298a:	dc 01       	movw	r26, r24
    298c:	aa 0f       	add	r26, r26
    298e:	bb 1f       	adc	r27, r27
    2990:	9b 01       	movw	r18, r22
    2992:	ac 01       	movw	r20, r24
    2994:	bf 57       	subi	r27, 0x7F	; 127
    2996:	28 f4       	brcc	.+10     	; 0x29a2 <modf+0x1a>
    2998:	22 27       	eor	r18, r18
    299a:	33 27       	eor	r19, r19
    299c:	44 27       	eor	r20, r20
    299e:	50 78       	andi	r21, 0x80	; 128
    29a0:	20 c0       	rjmp	.+64     	; 0x29e2 <modf+0x5a>
    29a2:	b7 51       	subi	r27, 0x17	; 23
    29a4:	90 f4       	brcc	.+36     	; 0x29ca <modf+0x42>
    29a6:	ab 2f       	mov	r26, r27
    29a8:	00 24       	eor	r0, r0
    29aa:	46 95       	lsr	r20
    29ac:	37 95       	ror	r19
    29ae:	27 95       	ror	r18
    29b0:	01 1c       	adc	r0, r1
    29b2:	a3 95       	inc	r26
    29b4:	d2 f3       	brmi	.-12     	; 0x29aa <modf+0x22>
    29b6:	00 20       	and	r0, r0
    29b8:	71 f0       	breq	.+28     	; 0x29d6 <modf+0x4e>
    29ba:	22 0f       	add	r18, r18
    29bc:	33 1f       	adc	r19, r19
    29be:	44 1f       	adc	r20, r20
    29c0:	b3 95       	inc	r27
    29c2:	da f3       	brmi	.-10     	; 0x29ba <modf+0x32>
    29c4:	0e d0       	rcall	.+28     	; 0x29e2 <modf+0x5a>
    29c6:	0c 94 6a 10 	jmp	0x20d4	; 0x20d4 <__subsf3>
    29ca:	61 30       	cpi	r22, 0x01	; 1
    29cc:	71 05       	cpc	r23, r1
    29ce:	a0 e8       	ldi	r26, 0x80	; 128
    29d0:	8a 07       	cpc	r24, r26
    29d2:	b9 46       	sbci	r27, 0x69	; 105
    29d4:	30 f4       	brcc	.+12     	; 0x29e2 <modf+0x5a>
    29d6:	9b 01       	movw	r18, r22
    29d8:	ac 01       	movw	r20, r24
    29da:	66 27       	eor	r22, r22
    29dc:	77 27       	eor	r23, r23
    29de:	88 27       	eor	r24, r24
    29e0:	90 78       	andi	r25, 0x80	; 128
    29e2:	30 96       	adiw	r30, 0x00	; 0
    29e4:	21 f0       	breq	.+8      	; 0x29ee <modf+0x66>
    29e6:	20 83       	st	Z, r18
    29e8:	31 83       	std	Z+1, r19	; 0x01
    29ea:	42 83       	std	Z+2, r20	; 0x02
    29ec:	53 83       	std	Z+3, r21	; 0x03
    29ee:	08 95       	ret

000029f0 <__udivmodhi4>:
    29f0:	aa 1b       	sub	r26, r26
    29f2:	bb 1b       	sub	r27, r27
    29f4:	51 e1       	ldi	r21, 0x11	; 17
    29f6:	07 c0       	rjmp	.+14     	; 0x2a06 <__udivmodhi4_ep>

000029f8 <__udivmodhi4_loop>:
    29f8:	aa 1f       	adc	r26, r26
    29fa:	bb 1f       	adc	r27, r27
    29fc:	a6 17       	cp	r26, r22
    29fe:	b7 07       	cpc	r27, r23
    2a00:	10 f0       	brcs	.+4      	; 0x2a06 <__udivmodhi4_ep>
    2a02:	a6 1b       	sub	r26, r22
    2a04:	b7 0b       	sbc	r27, r23

00002a06 <__udivmodhi4_ep>:
    2a06:	88 1f       	adc	r24, r24
    2a08:	99 1f       	adc	r25, r25
    2a0a:	5a 95       	dec	r21
    2a0c:	a9 f7       	brne	.-22     	; 0x29f8 <__udivmodhi4_loop>
    2a0e:	80 95       	com	r24
    2a10:	90 95       	com	r25
    2a12:	bc 01       	movw	r22, r24
    2a14:	cd 01       	movw	r24, r26
    2a16:	08 95       	ret

00002a18 <atof>:
    2a18:	66 27       	eor	r22, r22
    2a1a:	77 27       	eor	r23, r23
    2a1c:	0c 94 3f 17 	jmp	0x2e7e	; 0x2e7e <strtod>

00002a20 <strtok>:
    2a20:	4c e0       	ldi	r20, 0x0C	; 12
    2a22:	53 e0       	ldi	r21, 0x03	; 3
    2a24:	0e 94 15 15 	call	0x2a2a	; 0x2a2a <strtok_r>
    2a28:	08 95       	ret

00002a2a <strtok_r>:
    2a2a:	fa 01       	movw	r30, r20
    2a2c:	a1 91       	ld	r26, Z+
    2a2e:	b0 81       	ld	r27, Z
    2a30:	00 97       	sbiw	r24, 0x00	; 0
    2a32:	19 f4       	brne	.+6      	; 0x2a3a <strtok_r+0x10>
    2a34:	10 97       	sbiw	r26, 0x00	; 0
    2a36:	e1 f0       	breq	.+56     	; 0x2a70 <strtok_r+0x46>
    2a38:	cd 01       	movw	r24, r26
    2a3a:	dc 01       	movw	r26, r24
    2a3c:	cd 01       	movw	r24, r26
    2a3e:	0d 90       	ld	r0, X+
    2a40:	00 20       	and	r0, r0
    2a42:	11 f4       	brne	.+4      	; 0x2a48 <strtok_r+0x1e>
    2a44:	c0 01       	movw	r24, r0
    2a46:	13 c0       	rjmp	.+38     	; 0x2a6e <strtok_r+0x44>
    2a48:	fb 01       	movw	r30, r22
    2a4a:	21 91       	ld	r18, Z+
    2a4c:	22 23       	and	r18, r18
    2a4e:	19 f0       	breq	.+6      	; 0x2a56 <strtok_r+0x2c>
    2a50:	20 15       	cp	r18, r0
    2a52:	d9 f7       	brne	.-10     	; 0x2a4a <strtok_r+0x20>
    2a54:	f3 cf       	rjmp	.-26     	; 0x2a3c <strtok_r+0x12>
    2a56:	fb 01       	movw	r30, r22
    2a58:	21 91       	ld	r18, Z+
    2a5a:	20 15       	cp	r18, r0
    2a5c:	19 f4       	brne	.+6      	; 0x2a64 <strtok_r+0x3a>
    2a5e:	1e 92       	st	-X, r1
    2a60:	11 96       	adiw	r26, 0x01	; 1
    2a62:	06 c0       	rjmp	.+12     	; 0x2a70 <strtok_r+0x46>
    2a64:	22 23       	and	r18, r18
    2a66:	c1 f7       	brne	.-16     	; 0x2a58 <strtok_r+0x2e>
    2a68:	0d 90       	ld	r0, X+
    2a6a:	00 20       	and	r0, r0
    2a6c:	a1 f7       	brne	.-24     	; 0x2a56 <strtok_r+0x2c>
    2a6e:	d0 01       	movw	r26, r0
    2a70:	fa 01       	movw	r30, r20
    2a72:	a1 93       	st	Z+, r26
    2a74:	b0 83       	st	Z, r27
    2a76:	08 95       	ret

00002a78 <sprintf>:
    2a78:	ae e0       	ldi	r26, 0x0E	; 14
    2a7a:	b0 e0       	ldi	r27, 0x00	; 0
    2a7c:	e2 e4       	ldi	r30, 0x42	; 66
    2a7e:	f5 e1       	ldi	r31, 0x15	; 21
    2a80:	0c 94 7a 19 	jmp	0x32f4	; 0x32f4 <__prologue_saves__+0x1c>
    2a84:	0d 89       	ldd	r16, Y+21	; 0x15
    2a86:	1e 89       	ldd	r17, Y+22	; 0x16
    2a88:	86 e0       	ldi	r24, 0x06	; 6
    2a8a:	8c 83       	std	Y+4, r24	; 0x04
    2a8c:	1a 83       	std	Y+2, r17	; 0x02
    2a8e:	09 83       	std	Y+1, r16	; 0x01
    2a90:	8f ef       	ldi	r24, 0xFF	; 255
    2a92:	9f e7       	ldi	r25, 0x7F	; 127
    2a94:	9e 83       	std	Y+6, r25	; 0x06
    2a96:	8d 83       	std	Y+5, r24	; 0x05
    2a98:	ae 01       	movw	r20, r28
    2a9a:	47 5e       	subi	r20, 0xE7	; 231
    2a9c:	5f 4f       	sbci	r21, 0xFF	; 255
    2a9e:	6f 89       	ldd	r22, Y+23	; 0x17
    2aa0:	78 8d       	ldd	r23, Y+24	; 0x18
    2aa2:	ce 01       	movw	r24, r28
    2aa4:	01 96       	adiw	r24, 0x01	; 1
    2aa6:	0e 94 5e 15 	call	0x2abc	; 0x2abc <vfprintf>
    2aaa:	ef 81       	ldd	r30, Y+7	; 0x07
    2aac:	f8 85       	ldd	r31, Y+8	; 0x08
    2aae:	e0 0f       	add	r30, r16
    2ab0:	f1 1f       	adc	r31, r17
    2ab2:	10 82       	st	Z, r1
    2ab4:	2e 96       	adiw	r28, 0x0e	; 14
    2ab6:	e4 e0       	ldi	r30, 0x04	; 4
    2ab8:	0c 94 96 19 	jmp	0x332c	; 0x332c <__epilogue_restores__+0x1c>

00002abc <vfprintf>:
    2abc:	ab e0       	ldi	r26, 0x0B	; 11
    2abe:	b0 e0       	ldi	r27, 0x00	; 0
    2ac0:	e4 e6       	ldi	r30, 0x64	; 100
    2ac2:	f5 e1       	ldi	r31, 0x15	; 21
    2ac4:	0c 94 6c 19 	jmp	0x32d8	; 0x32d8 <__prologue_saves__>
    2ac8:	6c 01       	movw	r12, r24
    2aca:	7b 01       	movw	r14, r22
    2acc:	8a 01       	movw	r16, r20
    2ace:	fc 01       	movw	r30, r24
    2ad0:	17 82       	std	Z+7, r1	; 0x07
    2ad2:	16 82       	std	Z+6, r1	; 0x06
    2ad4:	83 81       	ldd	r24, Z+3	; 0x03
    2ad6:	81 ff       	sbrs	r24, 1
    2ad8:	cc c1       	rjmp	.+920    	; 0x2e72 <vfprintf+0x3b6>
    2ada:	ce 01       	movw	r24, r28
    2adc:	01 96       	adiw	r24, 0x01	; 1
    2ade:	3c 01       	movw	r6, r24
    2ae0:	f6 01       	movw	r30, r12
    2ae2:	93 81       	ldd	r25, Z+3	; 0x03
    2ae4:	f7 01       	movw	r30, r14
    2ae6:	93 fd       	sbrc	r25, 3
    2ae8:	85 91       	lpm	r24, Z+
    2aea:	93 ff       	sbrs	r25, 3
    2aec:	81 91       	ld	r24, Z+
    2aee:	7f 01       	movw	r14, r30
    2af0:	88 23       	and	r24, r24
    2af2:	09 f4       	brne	.+2      	; 0x2af6 <vfprintf+0x3a>
    2af4:	ba c1       	rjmp	.+884    	; 0x2e6a <vfprintf+0x3ae>
    2af6:	85 32       	cpi	r24, 0x25	; 37
    2af8:	39 f4       	brne	.+14     	; 0x2b08 <vfprintf+0x4c>
    2afa:	93 fd       	sbrc	r25, 3
    2afc:	85 91       	lpm	r24, Z+
    2afe:	93 ff       	sbrs	r25, 3
    2b00:	81 91       	ld	r24, Z+
    2b02:	7f 01       	movw	r14, r30
    2b04:	85 32       	cpi	r24, 0x25	; 37
    2b06:	29 f4       	brne	.+10     	; 0x2b12 <vfprintf+0x56>
    2b08:	b6 01       	movw	r22, r12
    2b0a:	90 e0       	ldi	r25, 0x00	; 0
    2b0c:	0e 94 c4 18 	call	0x3188	; 0x3188 <fputc>
    2b10:	e7 cf       	rjmp	.-50     	; 0x2ae0 <vfprintf+0x24>
    2b12:	91 2c       	mov	r9, r1
    2b14:	21 2c       	mov	r2, r1
    2b16:	31 2c       	mov	r3, r1
    2b18:	ff e1       	ldi	r31, 0x1F	; 31
    2b1a:	f3 15       	cp	r31, r3
    2b1c:	d8 f0       	brcs	.+54     	; 0x2b54 <vfprintf+0x98>
    2b1e:	8b 32       	cpi	r24, 0x2B	; 43
    2b20:	79 f0       	breq	.+30     	; 0x2b40 <vfprintf+0x84>
    2b22:	38 f4       	brcc	.+14     	; 0x2b32 <vfprintf+0x76>
    2b24:	80 32       	cpi	r24, 0x20	; 32
    2b26:	79 f0       	breq	.+30     	; 0x2b46 <vfprintf+0x8a>
    2b28:	83 32       	cpi	r24, 0x23	; 35
    2b2a:	a1 f4       	brne	.+40     	; 0x2b54 <vfprintf+0x98>
    2b2c:	23 2d       	mov	r18, r3
    2b2e:	20 61       	ori	r18, 0x10	; 16
    2b30:	1d c0       	rjmp	.+58     	; 0x2b6c <vfprintf+0xb0>
    2b32:	8d 32       	cpi	r24, 0x2D	; 45
    2b34:	61 f0       	breq	.+24     	; 0x2b4e <vfprintf+0x92>
    2b36:	80 33       	cpi	r24, 0x30	; 48
    2b38:	69 f4       	brne	.+26     	; 0x2b54 <vfprintf+0x98>
    2b3a:	23 2d       	mov	r18, r3
    2b3c:	21 60       	ori	r18, 0x01	; 1
    2b3e:	16 c0       	rjmp	.+44     	; 0x2b6c <vfprintf+0xb0>
    2b40:	83 2d       	mov	r24, r3
    2b42:	82 60       	ori	r24, 0x02	; 2
    2b44:	38 2e       	mov	r3, r24
    2b46:	e3 2d       	mov	r30, r3
    2b48:	e4 60       	ori	r30, 0x04	; 4
    2b4a:	3e 2e       	mov	r3, r30
    2b4c:	2a c0       	rjmp	.+84     	; 0x2ba2 <vfprintf+0xe6>
    2b4e:	f3 2d       	mov	r31, r3
    2b50:	f8 60       	ori	r31, 0x08	; 8
    2b52:	1d c0       	rjmp	.+58     	; 0x2b8e <vfprintf+0xd2>
    2b54:	37 fc       	sbrc	r3, 7
    2b56:	2d c0       	rjmp	.+90     	; 0x2bb2 <vfprintf+0xf6>
    2b58:	20 ed       	ldi	r18, 0xD0	; 208
    2b5a:	28 0f       	add	r18, r24
    2b5c:	2a 30       	cpi	r18, 0x0A	; 10
    2b5e:	40 f0       	brcs	.+16     	; 0x2b70 <vfprintf+0xb4>
    2b60:	8e 32       	cpi	r24, 0x2E	; 46
    2b62:	b9 f4       	brne	.+46     	; 0x2b92 <vfprintf+0xd6>
    2b64:	36 fc       	sbrc	r3, 6
    2b66:	81 c1       	rjmp	.+770    	; 0x2e6a <vfprintf+0x3ae>
    2b68:	23 2d       	mov	r18, r3
    2b6a:	20 64       	ori	r18, 0x40	; 64
    2b6c:	32 2e       	mov	r3, r18
    2b6e:	19 c0       	rjmp	.+50     	; 0x2ba2 <vfprintf+0xe6>
    2b70:	36 fe       	sbrs	r3, 6
    2b72:	06 c0       	rjmp	.+12     	; 0x2b80 <vfprintf+0xc4>
    2b74:	8a e0       	ldi	r24, 0x0A	; 10
    2b76:	98 9e       	mul	r9, r24
    2b78:	20 0d       	add	r18, r0
    2b7a:	11 24       	eor	r1, r1
    2b7c:	92 2e       	mov	r9, r18
    2b7e:	11 c0       	rjmp	.+34     	; 0x2ba2 <vfprintf+0xe6>
    2b80:	ea e0       	ldi	r30, 0x0A	; 10
    2b82:	2e 9e       	mul	r2, r30
    2b84:	20 0d       	add	r18, r0
    2b86:	11 24       	eor	r1, r1
    2b88:	22 2e       	mov	r2, r18
    2b8a:	f3 2d       	mov	r31, r3
    2b8c:	f0 62       	ori	r31, 0x20	; 32
    2b8e:	3f 2e       	mov	r3, r31
    2b90:	08 c0       	rjmp	.+16     	; 0x2ba2 <vfprintf+0xe6>
    2b92:	8c 36       	cpi	r24, 0x6C	; 108
    2b94:	21 f4       	brne	.+8      	; 0x2b9e <vfprintf+0xe2>
    2b96:	83 2d       	mov	r24, r3
    2b98:	80 68       	ori	r24, 0x80	; 128
    2b9a:	38 2e       	mov	r3, r24
    2b9c:	02 c0       	rjmp	.+4      	; 0x2ba2 <vfprintf+0xe6>
    2b9e:	88 36       	cpi	r24, 0x68	; 104
    2ba0:	41 f4       	brne	.+16     	; 0x2bb2 <vfprintf+0xf6>
    2ba2:	f7 01       	movw	r30, r14
    2ba4:	93 fd       	sbrc	r25, 3
    2ba6:	85 91       	lpm	r24, Z+
    2ba8:	93 ff       	sbrs	r25, 3
    2baa:	81 91       	ld	r24, Z+
    2bac:	7f 01       	movw	r14, r30
    2bae:	81 11       	cpse	r24, r1
    2bb0:	b3 cf       	rjmp	.-154    	; 0x2b18 <vfprintf+0x5c>
    2bb2:	98 2f       	mov	r25, r24
    2bb4:	9f 7d       	andi	r25, 0xDF	; 223
    2bb6:	95 54       	subi	r25, 0x45	; 69
    2bb8:	93 30       	cpi	r25, 0x03	; 3
    2bba:	28 f4       	brcc	.+10     	; 0x2bc6 <vfprintf+0x10a>
    2bbc:	0c 5f       	subi	r16, 0xFC	; 252
    2bbe:	1f 4f       	sbci	r17, 0xFF	; 255
    2bc0:	9f e3       	ldi	r25, 0x3F	; 63
    2bc2:	99 83       	std	Y+1, r25	; 0x01
    2bc4:	0d c0       	rjmp	.+26     	; 0x2be0 <vfprintf+0x124>
    2bc6:	83 36       	cpi	r24, 0x63	; 99
    2bc8:	31 f0       	breq	.+12     	; 0x2bd6 <vfprintf+0x11a>
    2bca:	83 37       	cpi	r24, 0x73	; 115
    2bcc:	71 f0       	breq	.+28     	; 0x2bea <vfprintf+0x12e>
    2bce:	83 35       	cpi	r24, 0x53	; 83
    2bd0:	09 f0       	breq	.+2      	; 0x2bd4 <vfprintf+0x118>
    2bd2:	59 c0       	rjmp	.+178    	; 0x2c86 <vfprintf+0x1ca>
    2bd4:	21 c0       	rjmp	.+66     	; 0x2c18 <vfprintf+0x15c>
    2bd6:	f8 01       	movw	r30, r16
    2bd8:	80 81       	ld	r24, Z
    2bda:	89 83       	std	Y+1, r24	; 0x01
    2bdc:	0e 5f       	subi	r16, 0xFE	; 254
    2bde:	1f 4f       	sbci	r17, 0xFF	; 255
    2be0:	88 24       	eor	r8, r8
    2be2:	83 94       	inc	r8
    2be4:	91 2c       	mov	r9, r1
    2be6:	53 01       	movw	r10, r6
    2be8:	13 c0       	rjmp	.+38     	; 0x2c10 <vfprintf+0x154>
    2bea:	28 01       	movw	r4, r16
    2bec:	f2 e0       	ldi	r31, 0x02	; 2
    2bee:	4f 0e       	add	r4, r31
    2bf0:	51 1c       	adc	r5, r1
    2bf2:	f8 01       	movw	r30, r16
    2bf4:	a0 80       	ld	r10, Z
    2bf6:	b1 80       	ldd	r11, Z+1	; 0x01
    2bf8:	36 fe       	sbrs	r3, 6
    2bfa:	03 c0       	rjmp	.+6      	; 0x2c02 <vfprintf+0x146>
    2bfc:	69 2d       	mov	r22, r9
    2bfe:	70 e0       	ldi	r23, 0x00	; 0
    2c00:	02 c0       	rjmp	.+4      	; 0x2c06 <vfprintf+0x14a>
    2c02:	6f ef       	ldi	r22, 0xFF	; 255
    2c04:	7f ef       	ldi	r23, 0xFF	; 255
    2c06:	c5 01       	movw	r24, r10
    2c08:	0e 94 b9 18 	call	0x3172	; 0x3172 <strnlen>
    2c0c:	4c 01       	movw	r8, r24
    2c0e:	82 01       	movw	r16, r4
    2c10:	f3 2d       	mov	r31, r3
    2c12:	ff 77       	andi	r31, 0x7F	; 127
    2c14:	3f 2e       	mov	r3, r31
    2c16:	16 c0       	rjmp	.+44     	; 0x2c44 <vfprintf+0x188>
    2c18:	28 01       	movw	r4, r16
    2c1a:	22 e0       	ldi	r18, 0x02	; 2
    2c1c:	42 0e       	add	r4, r18
    2c1e:	51 1c       	adc	r5, r1
    2c20:	f8 01       	movw	r30, r16
    2c22:	a0 80       	ld	r10, Z
    2c24:	b1 80       	ldd	r11, Z+1	; 0x01
    2c26:	36 fe       	sbrs	r3, 6
    2c28:	03 c0       	rjmp	.+6      	; 0x2c30 <vfprintf+0x174>
    2c2a:	69 2d       	mov	r22, r9
    2c2c:	70 e0       	ldi	r23, 0x00	; 0
    2c2e:	02 c0       	rjmp	.+4      	; 0x2c34 <vfprintf+0x178>
    2c30:	6f ef       	ldi	r22, 0xFF	; 255
    2c32:	7f ef       	ldi	r23, 0xFF	; 255
    2c34:	c5 01       	movw	r24, r10
    2c36:	0e 94 ae 18 	call	0x315c	; 0x315c <strnlen_P>
    2c3a:	4c 01       	movw	r8, r24
    2c3c:	f3 2d       	mov	r31, r3
    2c3e:	f0 68       	ori	r31, 0x80	; 128
    2c40:	3f 2e       	mov	r3, r31
    2c42:	82 01       	movw	r16, r4
    2c44:	33 fc       	sbrc	r3, 3
    2c46:	1b c0       	rjmp	.+54     	; 0x2c7e <vfprintf+0x1c2>
    2c48:	82 2d       	mov	r24, r2
    2c4a:	90 e0       	ldi	r25, 0x00	; 0
    2c4c:	88 16       	cp	r8, r24
    2c4e:	99 06       	cpc	r9, r25
    2c50:	b0 f4       	brcc	.+44     	; 0x2c7e <vfprintf+0x1c2>
    2c52:	b6 01       	movw	r22, r12
    2c54:	80 e2       	ldi	r24, 0x20	; 32
    2c56:	90 e0       	ldi	r25, 0x00	; 0
    2c58:	0e 94 c4 18 	call	0x3188	; 0x3188 <fputc>
    2c5c:	2a 94       	dec	r2
    2c5e:	f4 cf       	rjmp	.-24     	; 0x2c48 <vfprintf+0x18c>
    2c60:	f5 01       	movw	r30, r10
    2c62:	37 fc       	sbrc	r3, 7
    2c64:	85 91       	lpm	r24, Z+
    2c66:	37 fe       	sbrs	r3, 7
    2c68:	81 91       	ld	r24, Z+
    2c6a:	5f 01       	movw	r10, r30
    2c6c:	b6 01       	movw	r22, r12
    2c6e:	90 e0       	ldi	r25, 0x00	; 0
    2c70:	0e 94 c4 18 	call	0x3188	; 0x3188 <fputc>
    2c74:	21 10       	cpse	r2, r1
    2c76:	2a 94       	dec	r2
    2c78:	21 e0       	ldi	r18, 0x01	; 1
    2c7a:	82 1a       	sub	r8, r18
    2c7c:	91 08       	sbc	r9, r1
    2c7e:	81 14       	cp	r8, r1
    2c80:	91 04       	cpc	r9, r1
    2c82:	71 f7       	brne	.-36     	; 0x2c60 <vfprintf+0x1a4>
    2c84:	e8 c0       	rjmp	.+464    	; 0x2e56 <vfprintf+0x39a>
    2c86:	84 36       	cpi	r24, 0x64	; 100
    2c88:	11 f0       	breq	.+4      	; 0x2c8e <vfprintf+0x1d2>
    2c8a:	89 36       	cpi	r24, 0x69	; 105
    2c8c:	41 f5       	brne	.+80     	; 0x2cde <vfprintf+0x222>
    2c8e:	f8 01       	movw	r30, r16
    2c90:	37 fe       	sbrs	r3, 7
    2c92:	07 c0       	rjmp	.+14     	; 0x2ca2 <vfprintf+0x1e6>
    2c94:	60 81       	ld	r22, Z
    2c96:	71 81       	ldd	r23, Z+1	; 0x01
    2c98:	82 81       	ldd	r24, Z+2	; 0x02
    2c9a:	93 81       	ldd	r25, Z+3	; 0x03
    2c9c:	0c 5f       	subi	r16, 0xFC	; 252
    2c9e:	1f 4f       	sbci	r17, 0xFF	; 255
    2ca0:	08 c0       	rjmp	.+16     	; 0x2cb2 <vfprintf+0x1f6>
    2ca2:	60 81       	ld	r22, Z
    2ca4:	71 81       	ldd	r23, Z+1	; 0x01
    2ca6:	07 2e       	mov	r0, r23
    2ca8:	00 0c       	add	r0, r0
    2caa:	88 0b       	sbc	r24, r24
    2cac:	99 0b       	sbc	r25, r25
    2cae:	0e 5f       	subi	r16, 0xFE	; 254
    2cb0:	1f 4f       	sbci	r17, 0xFF	; 255
    2cb2:	f3 2d       	mov	r31, r3
    2cb4:	ff 76       	andi	r31, 0x6F	; 111
    2cb6:	3f 2e       	mov	r3, r31
    2cb8:	97 ff       	sbrs	r25, 7
    2cba:	09 c0       	rjmp	.+18     	; 0x2cce <vfprintf+0x212>
    2cbc:	90 95       	com	r25
    2cbe:	80 95       	com	r24
    2cc0:	70 95       	com	r23
    2cc2:	61 95       	neg	r22
    2cc4:	7f 4f       	sbci	r23, 0xFF	; 255
    2cc6:	8f 4f       	sbci	r24, 0xFF	; 255
    2cc8:	9f 4f       	sbci	r25, 0xFF	; 255
    2cca:	f0 68       	ori	r31, 0x80	; 128
    2ccc:	3f 2e       	mov	r3, r31
    2cce:	2a e0       	ldi	r18, 0x0A	; 10
    2cd0:	30 e0       	ldi	r19, 0x00	; 0
    2cd2:	a3 01       	movw	r20, r6
    2cd4:	0e 94 00 19 	call	0x3200	; 0x3200 <__ultoa_invert>
    2cd8:	88 2e       	mov	r8, r24
    2cda:	86 18       	sub	r8, r6
    2cdc:	45 c0       	rjmp	.+138    	; 0x2d68 <vfprintf+0x2ac>
    2cde:	85 37       	cpi	r24, 0x75	; 117
    2ce0:	31 f4       	brne	.+12     	; 0x2cee <vfprintf+0x232>
    2ce2:	23 2d       	mov	r18, r3
    2ce4:	2f 7e       	andi	r18, 0xEF	; 239
    2ce6:	b2 2e       	mov	r11, r18
    2ce8:	2a e0       	ldi	r18, 0x0A	; 10
    2cea:	30 e0       	ldi	r19, 0x00	; 0
    2cec:	25 c0       	rjmp	.+74     	; 0x2d38 <vfprintf+0x27c>
    2cee:	93 2d       	mov	r25, r3
    2cf0:	99 7f       	andi	r25, 0xF9	; 249
    2cf2:	b9 2e       	mov	r11, r25
    2cf4:	8f 36       	cpi	r24, 0x6F	; 111
    2cf6:	c1 f0       	breq	.+48     	; 0x2d28 <vfprintf+0x26c>
    2cf8:	18 f4       	brcc	.+6      	; 0x2d00 <vfprintf+0x244>
    2cfa:	88 35       	cpi	r24, 0x58	; 88
    2cfc:	79 f0       	breq	.+30     	; 0x2d1c <vfprintf+0x260>
    2cfe:	b5 c0       	rjmp	.+362    	; 0x2e6a <vfprintf+0x3ae>
    2d00:	80 37       	cpi	r24, 0x70	; 112
    2d02:	19 f0       	breq	.+6      	; 0x2d0a <vfprintf+0x24e>
    2d04:	88 37       	cpi	r24, 0x78	; 120
    2d06:	21 f0       	breq	.+8      	; 0x2d10 <vfprintf+0x254>
    2d08:	b0 c0       	rjmp	.+352    	; 0x2e6a <vfprintf+0x3ae>
    2d0a:	e9 2f       	mov	r30, r25
    2d0c:	e0 61       	ori	r30, 0x10	; 16
    2d0e:	be 2e       	mov	r11, r30
    2d10:	b4 fe       	sbrs	r11, 4
    2d12:	0d c0       	rjmp	.+26     	; 0x2d2e <vfprintf+0x272>
    2d14:	fb 2d       	mov	r31, r11
    2d16:	f4 60       	ori	r31, 0x04	; 4
    2d18:	bf 2e       	mov	r11, r31
    2d1a:	09 c0       	rjmp	.+18     	; 0x2d2e <vfprintf+0x272>
    2d1c:	34 fe       	sbrs	r3, 4
    2d1e:	0a c0       	rjmp	.+20     	; 0x2d34 <vfprintf+0x278>
    2d20:	29 2f       	mov	r18, r25
    2d22:	26 60       	ori	r18, 0x06	; 6
    2d24:	b2 2e       	mov	r11, r18
    2d26:	06 c0       	rjmp	.+12     	; 0x2d34 <vfprintf+0x278>
    2d28:	28 e0       	ldi	r18, 0x08	; 8
    2d2a:	30 e0       	ldi	r19, 0x00	; 0
    2d2c:	05 c0       	rjmp	.+10     	; 0x2d38 <vfprintf+0x27c>
    2d2e:	20 e1       	ldi	r18, 0x10	; 16
    2d30:	30 e0       	ldi	r19, 0x00	; 0
    2d32:	02 c0       	rjmp	.+4      	; 0x2d38 <vfprintf+0x27c>
    2d34:	20 e1       	ldi	r18, 0x10	; 16
    2d36:	32 e0       	ldi	r19, 0x02	; 2
    2d38:	f8 01       	movw	r30, r16
    2d3a:	b7 fe       	sbrs	r11, 7
    2d3c:	07 c0       	rjmp	.+14     	; 0x2d4c <vfprintf+0x290>
    2d3e:	60 81       	ld	r22, Z
    2d40:	71 81       	ldd	r23, Z+1	; 0x01
    2d42:	82 81       	ldd	r24, Z+2	; 0x02
    2d44:	93 81       	ldd	r25, Z+3	; 0x03
    2d46:	0c 5f       	subi	r16, 0xFC	; 252
    2d48:	1f 4f       	sbci	r17, 0xFF	; 255
    2d4a:	06 c0       	rjmp	.+12     	; 0x2d58 <vfprintf+0x29c>
    2d4c:	60 81       	ld	r22, Z
    2d4e:	71 81       	ldd	r23, Z+1	; 0x01
    2d50:	80 e0       	ldi	r24, 0x00	; 0
    2d52:	90 e0       	ldi	r25, 0x00	; 0
    2d54:	0e 5f       	subi	r16, 0xFE	; 254
    2d56:	1f 4f       	sbci	r17, 0xFF	; 255
    2d58:	a3 01       	movw	r20, r6
    2d5a:	0e 94 00 19 	call	0x3200	; 0x3200 <__ultoa_invert>
    2d5e:	88 2e       	mov	r8, r24
    2d60:	86 18       	sub	r8, r6
    2d62:	fb 2d       	mov	r31, r11
    2d64:	ff 77       	andi	r31, 0x7F	; 127
    2d66:	3f 2e       	mov	r3, r31
    2d68:	36 fe       	sbrs	r3, 6
    2d6a:	0d c0       	rjmp	.+26     	; 0x2d86 <vfprintf+0x2ca>
    2d6c:	23 2d       	mov	r18, r3
    2d6e:	2e 7f       	andi	r18, 0xFE	; 254
    2d70:	a2 2e       	mov	r10, r18
    2d72:	89 14       	cp	r8, r9
    2d74:	58 f4       	brcc	.+22     	; 0x2d8c <vfprintf+0x2d0>
    2d76:	34 fe       	sbrs	r3, 4
    2d78:	0b c0       	rjmp	.+22     	; 0x2d90 <vfprintf+0x2d4>
    2d7a:	32 fc       	sbrc	r3, 2
    2d7c:	09 c0       	rjmp	.+18     	; 0x2d90 <vfprintf+0x2d4>
    2d7e:	83 2d       	mov	r24, r3
    2d80:	8e 7e       	andi	r24, 0xEE	; 238
    2d82:	a8 2e       	mov	r10, r24
    2d84:	05 c0       	rjmp	.+10     	; 0x2d90 <vfprintf+0x2d4>
    2d86:	b8 2c       	mov	r11, r8
    2d88:	a3 2c       	mov	r10, r3
    2d8a:	03 c0       	rjmp	.+6      	; 0x2d92 <vfprintf+0x2d6>
    2d8c:	b8 2c       	mov	r11, r8
    2d8e:	01 c0       	rjmp	.+2      	; 0x2d92 <vfprintf+0x2d6>
    2d90:	b9 2c       	mov	r11, r9
    2d92:	a4 fe       	sbrs	r10, 4
    2d94:	0f c0       	rjmp	.+30     	; 0x2db4 <vfprintf+0x2f8>
    2d96:	fe 01       	movw	r30, r28
    2d98:	e8 0d       	add	r30, r8
    2d9a:	f1 1d       	adc	r31, r1
    2d9c:	80 81       	ld	r24, Z
    2d9e:	80 33       	cpi	r24, 0x30	; 48
    2da0:	21 f4       	brne	.+8      	; 0x2daa <vfprintf+0x2ee>
    2da2:	9a 2d       	mov	r25, r10
    2da4:	99 7e       	andi	r25, 0xE9	; 233
    2da6:	a9 2e       	mov	r10, r25
    2da8:	09 c0       	rjmp	.+18     	; 0x2dbc <vfprintf+0x300>
    2daa:	a2 fe       	sbrs	r10, 2
    2dac:	06 c0       	rjmp	.+12     	; 0x2dba <vfprintf+0x2fe>
    2dae:	b3 94       	inc	r11
    2db0:	b3 94       	inc	r11
    2db2:	04 c0       	rjmp	.+8      	; 0x2dbc <vfprintf+0x300>
    2db4:	8a 2d       	mov	r24, r10
    2db6:	86 78       	andi	r24, 0x86	; 134
    2db8:	09 f0       	breq	.+2      	; 0x2dbc <vfprintf+0x300>
    2dba:	b3 94       	inc	r11
    2dbc:	a3 fc       	sbrc	r10, 3
    2dbe:	11 c0       	rjmp	.+34     	; 0x2de2 <vfprintf+0x326>
    2dc0:	a0 fe       	sbrs	r10, 0
    2dc2:	06 c0       	rjmp	.+12     	; 0x2dd0 <vfprintf+0x314>
    2dc4:	b2 14       	cp	r11, r2
    2dc6:	88 f4       	brcc	.+34     	; 0x2dea <vfprintf+0x32e>
    2dc8:	28 0c       	add	r2, r8
    2dca:	92 2c       	mov	r9, r2
    2dcc:	9b 18       	sub	r9, r11
    2dce:	0e c0       	rjmp	.+28     	; 0x2dec <vfprintf+0x330>
    2dd0:	b2 14       	cp	r11, r2
    2dd2:	60 f4       	brcc	.+24     	; 0x2dec <vfprintf+0x330>
    2dd4:	b6 01       	movw	r22, r12
    2dd6:	80 e2       	ldi	r24, 0x20	; 32
    2dd8:	90 e0       	ldi	r25, 0x00	; 0
    2dda:	0e 94 c4 18 	call	0x3188	; 0x3188 <fputc>
    2dde:	b3 94       	inc	r11
    2de0:	f7 cf       	rjmp	.-18     	; 0x2dd0 <vfprintf+0x314>
    2de2:	b2 14       	cp	r11, r2
    2de4:	18 f4       	brcc	.+6      	; 0x2dec <vfprintf+0x330>
    2de6:	2b 18       	sub	r2, r11
    2de8:	02 c0       	rjmp	.+4      	; 0x2dee <vfprintf+0x332>
    2dea:	98 2c       	mov	r9, r8
    2dec:	21 2c       	mov	r2, r1
    2dee:	a4 fe       	sbrs	r10, 4
    2df0:	10 c0       	rjmp	.+32     	; 0x2e12 <vfprintf+0x356>
    2df2:	b6 01       	movw	r22, r12
    2df4:	80 e3       	ldi	r24, 0x30	; 48
    2df6:	90 e0       	ldi	r25, 0x00	; 0
    2df8:	0e 94 c4 18 	call	0x3188	; 0x3188 <fputc>
    2dfc:	a2 fe       	sbrs	r10, 2
    2dfe:	17 c0       	rjmp	.+46     	; 0x2e2e <vfprintf+0x372>
    2e00:	a1 fc       	sbrc	r10, 1
    2e02:	03 c0       	rjmp	.+6      	; 0x2e0a <vfprintf+0x34e>
    2e04:	88 e7       	ldi	r24, 0x78	; 120
    2e06:	90 e0       	ldi	r25, 0x00	; 0
    2e08:	02 c0       	rjmp	.+4      	; 0x2e0e <vfprintf+0x352>
    2e0a:	88 e5       	ldi	r24, 0x58	; 88
    2e0c:	90 e0       	ldi	r25, 0x00	; 0
    2e0e:	b6 01       	movw	r22, r12
    2e10:	0c c0       	rjmp	.+24     	; 0x2e2a <vfprintf+0x36e>
    2e12:	8a 2d       	mov	r24, r10
    2e14:	86 78       	andi	r24, 0x86	; 134
    2e16:	59 f0       	breq	.+22     	; 0x2e2e <vfprintf+0x372>
    2e18:	a1 fe       	sbrs	r10, 1
    2e1a:	02 c0       	rjmp	.+4      	; 0x2e20 <vfprintf+0x364>
    2e1c:	8b e2       	ldi	r24, 0x2B	; 43
    2e1e:	01 c0       	rjmp	.+2      	; 0x2e22 <vfprintf+0x366>
    2e20:	80 e2       	ldi	r24, 0x20	; 32
    2e22:	a7 fc       	sbrc	r10, 7
    2e24:	8d e2       	ldi	r24, 0x2D	; 45
    2e26:	b6 01       	movw	r22, r12
    2e28:	90 e0       	ldi	r25, 0x00	; 0
    2e2a:	0e 94 c4 18 	call	0x3188	; 0x3188 <fputc>
    2e2e:	89 14       	cp	r8, r9
    2e30:	38 f4       	brcc	.+14     	; 0x2e40 <vfprintf+0x384>
    2e32:	b6 01       	movw	r22, r12
    2e34:	80 e3       	ldi	r24, 0x30	; 48
    2e36:	90 e0       	ldi	r25, 0x00	; 0
    2e38:	0e 94 c4 18 	call	0x3188	; 0x3188 <fputc>
    2e3c:	9a 94       	dec	r9
    2e3e:	f7 cf       	rjmp	.-18     	; 0x2e2e <vfprintf+0x372>
    2e40:	8a 94       	dec	r8
    2e42:	f3 01       	movw	r30, r6
    2e44:	e8 0d       	add	r30, r8
    2e46:	f1 1d       	adc	r31, r1
    2e48:	80 81       	ld	r24, Z
    2e4a:	b6 01       	movw	r22, r12
    2e4c:	90 e0       	ldi	r25, 0x00	; 0
    2e4e:	0e 94 c4 18 	call	0x3188	; 0x3188 <fputc>
    2e52:	81 10       	cpse	r8, r1
    2e54:	f5 cf       	rjmp	.-22     	; 0x2e40 <vfprintf+0x384>
    2e56:	22 20       	and	r2, r2
    2e58:	09 f4       	brne	.+2      	; 0x2e5c <vfprintf+0x3a0>
    2e5a:	42 ce       	rjmp	.-892    	; 0x2ae0 <vfprintf+0x24>
    2e5c:	b6 01       	movw	r22, r12
    2e5e:	80 e2       	ldi	r24, 0x20	; 32
    2e60:	90 e0       	ldi	r25, 0x00	; 0
    2e62:	0e 94 c4 18 	call	0x3188	; 0x3188 <fputc>
    2e66:	2a 94       	dec	r2
    2e68:	f6 cf       	rjmp	.-20     	; 0x2e56 <vfprintf+0x39a>
    2e6a:	f6 01       	movw	r30, r12
    2e6c:	86 81       	ldd	r24, Z+6	; 0x06
    2e6e:	97 81       	ldd	r25, Z+7	; 0x07
    2e70:	02 c0       	rjmp	.+4      	; 0x2e76 <vfprintf+0x3ba>
    2e72:	8f ef       	ldi	r24, 0xFF	; 255
    2e74:	9f ef       	ldi	r25, 0xFF	; 255
    2e76:	2b 96       	adiw	r28, 0x0b	; 11
    2e78:	e2 e1       	ldi	r30, 0x12	; 18
    2e7a:	0c 94 88 19 	jmp	0x3310	; 0x3310 <__epilogue_restores__>

00002e7e <strtod>:
    2e7e:	a0 e0       	ldi	r26, 0x00	; 0
    2e80:	b0 e0       	ldi	r27, 0x00	; 0
    2e82:	e5 e4       	ldi	r30, 0x45	; 69
    2e84:	f7 e1       	ldi	r31, 0x17	; 23
    2e86:	0c 94 72 19 	jmp	0x32e4	; 0x32e4 <__prologue_saves__+0xc>
    2e8a:	ec 01       	movw	r28, r24
    2e8c:	6b 01       	movw	r12, r22
    2e8e:	61 15       	cp	r22, r1
    2e90:	71 05       	cpc	r23, r1
    2e92:	19 f0       	breq	.+6      	; 0x2e9a <strtod+0x1c>
    2e94:	fb 01       	movw	r30, r22
    2e96:	91 83       	std	Z+1, r25	; 0x01
    2e98:	80 83       	st	Z, r24
    2e9a:	7e 01       	movw	r14, r28
    2e9c:	ff ef       	ldi	r31, 0xFF	; 255
    2e9e:	ef 1a       	sub	r14, r31
    2ea0:	ff 0a       	sbc	r15, r31
    2ea2:	08 81       	ld	r16, Y
    2ea4:	80 2f       	mov	r24, r16
    2ea6:	90 e0       	ldi	r25, 0x00	; 0
    2ea8:	0e 94 8d 18 	call	0x311a	; 0x311a <isspace>
    2eac:	89 2b       	or	r24, r25
    2eae:	11 f0       	breq	.+4      	; 0x2eb4 <strtod+0x36>
    2eb0:	e7 01       	movw	r28, r14
    2eb2:	f3 cf       	rjmp	.-26     	; 0x2e9a <strtod+0x1c>
    2eb4:	0d 32       	cpi	r16, 0x2D	; 45
    2eb6:	39 f4       	brne	.+14     	; 0x2ec6 <strtod+0x48>
    2eb8:	7e 01       	movw	r14, r28
    2eba:	82 e0       	ldi	r24, 0x02	; 2
    2ebc:	e8 0e       	add	r14, r24
    2ebe:	f1 1c       	adc	r15, r1
    2ec0:	09 81       	ldd	r16, Y+1	; 0x01
    2ec2:	11 e0       	ldi	r17, 0x01	; 1
    2ec4:	08 c0       	rjmp	.+16     	; 0x2ed6 <strtod+0x58>
    2ec6:	0b 32       	cpi	r16, 0x2B	; 43
    2ec8:	29 f4       	brne	.+10     	; 0x2ed4 <strtod+0x56>
    2eca:	7e 01       	movw	r14, r28
    2ecc:	92 e0       	ldi	r25, 0x02	; 2
    2ece:	e9 0e       	add	r14, r25
    2ed0:	f1 1c       	adc	r15, r1
    2ed2:	09 81       	ldd	r16, Y+1	; 0x01
    2ed4:	10 e0       	ldi	r17, 0x00	; 0
    2ed6:	e7 01       	movw	r28, r14
    2ed8:	21 97       	sbiw	r28, 0x01	; 1
    2eda:	43 e0       	ldi	r20, 0x03	; 3
    2edc:	50 e0       	ldi	r21, 0x00	; 0
    2ede:	68 e3       	ldi	r22, 0x38	; 56
    2ee0:	71 e0       	ldi	r23, 0x01	; 1
    2ee2:	ce 01       	movw	r24, r28
    2ee4:	0e 94 96 18 	call	0x312c	; 0x312c <strncasecmp_P>
    2ee8:	89 2b       	or	r24, r25
    2eea:	c1 f4       	brne	.+48     	; 0x2f1c <strtod+0x9e>
    2eec:	23 96       	adiw	r28, 0x03	; 3
    2eee:	45 e0       	ldi	r20, 0x05	; 5
    2ef0:	50 e0       	ldi	r21, 0x00	; 0
    2ef2:	63 e3       	ldi	r22, 0x33	; 51
    2ef4:	71 e0       	ldi	r23, 0x01	; 1
    2ef6:	ce 01       	movw	r24, r28
    2ef8:	0e 94 96 18 	call	0x312c	; 0x312c <strncasecmp_P>
    2efc:	89 2b       	or	r24, r25
    2efe:	09 f4       	brne	.+2      	; 0x2f02 <strtod+0x84>
    2f00:	25 96       	adiw	r28, 0x05	; 5
    2f02:	c1 14       	cp	r12, r1
    2f04:	d1 04       	cpc	r13, r1
    2f06:	19 f0       	breq	.+6      	; 0x2f0e <strtod+0x90>
    2f08:	f6 01       	movw	r30, r12
    2f0a:	d1 83       	std	Z+1, r29	; 0x01
    2f0c:	c0 83       	st	Z, r28
    2f0e:	11 11       	cpse	r17, r1
    2f10:	f6 c0       	rjmp	.+492    	; 0x30fe <strtod+0x280>
    2f12:	60 e0       	ldi	r22, 0x00	; 0
    2f14:	70 e0       	ldi	r23, 0x00	; 0
    2f16:	80 e8       	ldi	r24, 0x80	; 128
    2f18:	9f e7       	ldi	r25, 0x7F	; 127
    2f1a:	fa c0       	rjmp	.+500    	; 0x3110 <strtod+0x292>
    2f1c:	43 e0       	ldi	r20, 0x03	; 3
    2f1e:	50 e0       	ldi	r21, 0x00	; 0
    2f20:	60 e3       	ldi	r22, 0x30	; 48
    2f22:	71 e0       	ldi	r23, 0x01	; 1
    2f24:	ce 01       	movw	r24, r28
    2f26:	0e 94 96 18 	call	0x312c	; 0x312c <strncasecmp_P>
    2f2a:	89 2b       	or	r24, r25
    2f2c:	59 f4       	brne	.+22     	; 0x2f44 <strtod+0xc6>
    2f2e:	c1 14       	cp	r12, r1
    2f30:	d1 04       	cpc	r13, r1
    2f32:	09 f4       	brne	.+2      	; 0x2f36 <strtod+0xb8>
    2f34:	e9 c0       	rjmp	.+466    	; 0x3108 <strtod+0x28a>
    2f36:	f2 e0       	ldi	r31, 0x02	; 2
    2f38:	ef 0e       	add	r14, r31
    2f3a:	f1 1c       	adc	r15, r1
    2f3c:	f6 01       	movw	r30, r12
    2f3e:	f1 82       	std	Z+1, r15	; 0x01
    2f40:	e0 82       	st	Z, r14
    2f42:	e2 c0       	rjmp	.+452    	; 0x3108 <strtod+0x28a>
    2f44:	20 e0       	ldi	r18, 0x00	; 0
    2f46:	30 e0       	ldi	r19, 0x00	; 0
    2f48:	a9 01       	movw	r20, r18
    2f4a:	c0 e0       	ldi	r28, 0x00	; 0
    2f4c:	d0 e0       	ldi	r29, 0x00	; 0
    2f4e:	f7 01       	movw	r30, r14
    2f50:	80 ed       	ldi	r24, 0xD0	; 208
    2f52:	a8 2e       	mov	r10, r24
    2f54:	a0 0e       	add	r10, r16
    2f56:	89 e0       	ldi	r24, 0x09	; 9
    2f58:	8a 15       	cp	r24, r10
    2f5a:	30 f1       	brcs	.+76     	; 0x2fa8 <strtod+0x12a>
    2f5c:	91 2f       	mov	r25, r17
    2f5e:	92 60       	ori	r25, 0x02	; 2
    2f60:	b9 2e       	mov	r11, r25
    2f62:	81 2f       	mov	r24, r17
    2f64:	88 70       	andi	r24, 0x08	; 8
    2f66:	12 ff       	sbrs	r17, 2
    2f68:	04 c0       	rjmp	.+8      	; 0x2f72 <strtod+0xf4>
    2f6a:	81 11       	cpse	r24, r1
    2f6c:	24 c0       	rjmp	.+72     	; 0x2fb6 <strtod+0x138>
    2f6e:	21 96       	adiw	r28, 0x01	; 1
    2f70:	22 c0       	rjmp	.+68     	; 0x2fb6 <strtod+0x138>
    2f72:	81 11       	cpse	r24, r1
    2f74:	21 97       	sbiw	r28, 0x01	; 1
    2f76:	a5 e0       	ldi	r26, 0x05	; 5
    2f78:	b0 e0       	ldi	r27, 0x00	; 0
    2f7a:	0e 94 61 19 	call	0x32c2	; 0x32c2 <__muluhisi3>
    2f7e:	dc 01       	movw	r26, r24
    2f80:	cb 01       	movw	r24, r22
    2f82:	88 0f       	add	r24, r24
    2f84:	99 1f       	adc	r25, r25
    2f86:	aa 1f       	adc	r26, r26
    2f88:	bb 1f       	adc	r27, r27
    2f8a:	9c 01       	movw	r18, r24
    2f8c:	ad 01       	movw	r20, r26
    2f8e:	2a 0d       	add	r18, r10
    2f90:	31 1d       	adc	r19, r1
    2f92:	41 1d       	adc	r20, r1
    2f94:	51 1d       	adc	r21, r1
    2f96:	28 39       	cpi	r18, 0x98	; 152
    2f98:	89 e9       	ldi	r24, 0x99	; 153
    2f9a:	38 07       	cpc	r19, r24
    2f9c:	48 07       	cpc	r20, r24
    2f9e:	89 e1       	ldi	r24, 0x19	; 25
    2fa0:	58 07       	cpc	r21, r24
    2fa2:	48 f0       	brcs	.+18     	; 0x2fb6 <strtod+0x138>
    2fa4:	16 60       	ori	r17, 0x06	; 6
    2fa6:	06 c0       	rjmp	.+12     	; 0x2fb4 <strtod+0x136>
    2fa8:	9e ef       	ldi	r25, 0xFE	; 254
    2faa:	a9 12       	cpse	r10, r25
    2fac:	0a c0       	rjmp	.+20     	; 0x2fc2 <strtod+0x144>
    2fae:	13 fd       	sbrc	r17, 3
    2fb0:	40 c0       	rjmp	.+128    	; 0x3032 <strtod+0x1b4>
    2fb2:	18 60       	ori	r17, 0x08	; 8
    2fb4:	b1 2e       	mov	r11, r17
    2fb6:	8f ef       	ldi	r24, 0xFF	; 255
    2fb8:	e8 1a       	sub	r14, r24
    2fba:	f8 0a       	sbc	r15, r24
    2fbc:	00 81       	ld	r16, Z
    2fbe:	1b 2d       	mov	r17, r11
    2fc0:	c6 cf       	rjmp	.-116    	; 0x2f4e <strtod+0xd0>
    2fc2:	80 2f       	mov	r24, r16
    2fc4:	8f 7d       	andi	r24, 0xDF	; 223
    2fc6:	85 34       	cpi	r24, 0x45	; 69
    2fc8:	a1 f5       	brne	.+104    	; 0x3032 <strtod+0x1b4>
    2fca:	80 81       	ld	r24, Z
    2fcc:	8d 32       	cpi	r24, 0x2D	; 45
    2fce:	11 f4       	brne	.+4      	; 0x2fd4 <strtod+0x156>
    2fd0:	10 61       	ori	r17, 0x10	; 16
    2fd2:	06 c0       	rjmp	.+12     	; 0x2fe0 <strtod+0x162>
    2fd4:	8b 32       	cpi	r24, 0x2B	; 43
    2fd6:	21 f0       	breq	.+8      	; 0x2fe0 <strtod+0x162>
    2fd8:	31 96       	adiw	r30, 0x01	; 1
    2fda:	61 e0       	ldi	r22, 0x01	; 1
    2fdc:	70 e0       	ldi	r23, 0x00	; 0
    2fde:	04 c0       	rjmp	.+8      	; 0x2fe8 <strtod+0x16a>
    2fe0:	81 81       	ldd	r24, Z+1	; 0x01
    2fe2:	32 96       	adiw	r30, 0x02	; 2
    2fe4:	62 e0       	ldi	r22, 0x02	; 2
    2fe6:	70 e0       	ldi	r23, 0x00	; 0
    2fe8:	80 53       	subi	r24, 0x30	; 48
    2fea:	8a 30       	cpi	r24, 0x0A	; 10
    2fec:	18 f0       	brcs	.+6      	; 0x2ff4 <strtod+0x176>
    2fee:	e6 1b       	sub	r30, r22
    2ff0:	f7 0b       	sbc	r31, r23
    2ff2:	1f c0       	rjmp	.+62     	; 0x3032 <strtod+0x1b4>
    2ff4:	60 e0       	ldi	r22, 0x00	; 0
    2ff6:	70 e0       	ldi	r23, 0x00	; 0
    2ff8:	60 38       	cpi	r22, 0x80	; 128
    2ffa:	9c e0       	ldi	r25, 0x0C	; 12
    2ffc:	79 07       	cpc	r23, r25
    2ffe:	5c f4       	brge	.+22     	; 0x3016 <strtod+0x198>
    3000:	db 01       	movw	r26, r22
    3002:	aa 0f       	add	r26, r26
    3004:	bb 1f       	adc	r27, r27
    3006:	aa 0f       	add	r26, r26
    3008:	bb 1f       	adc	r27, r27
    300a:	6a 0f       	add	r22, r26
    300c:	7b 1f       	adc	r23, r27
    300e:	66 0f       	add	r22, r22
    3010:	77 1f       	adc	r23, r23
    3012:	68 0f       	add	r22, r24
    3014:	71 1d       	adc	r23, r1
    3016:	31 96       	adiw	r30, 0x01	; 1
    3018:	df 01       	movw	r26, r30
    301a:	11 97       	sbiw	r26, 0x01	; 1
    301c:	8c 91       	ld	r24, X
    301e:	80 53       	subi	r24, 0x30	; 48
    3020:	8a 30       	cpi	r24, 0x0A	; 10
    3022:	50 f3       	brcs	.-44     	; 0x2ff8 <strtod+0x17a>
    3024:	14 ff       	sbrs	r17, 4
    3026:	03 c0       	rjmp	.+6      	; 0x302e <strtod+0x1b0>
    3028:	71 95       	neg	r23
    302a:	61 95       	neg	r22
    302c:	71 09       	sbc	r23, r1
    302e:	c6 0f       	add	r28, r22
    3030:	d7 1f       	adc	r29, r23
    3032:	11 ff       	sbrs	r17, 1
    3034:	08 c0       	rjmp	.+16     	; 0x3046 <strtod+0x1c8>
    3036:	c1 14       	cp	r12, r1
    3038:	d1 04       	cpc	r13, r1
    303a:	29 f0       	breq	.+10     	; 0x3046 <strtod+0x1c8>
    303c:	cf 01       	movw	r24, r30
    303e:	01 97       	sbiw	r24, 0x01	; 1
    3040:	f6 01       	movw	r30, r12
    3042:	91 83       	std	Z+1, r25	; 0x01
    3044:	80 83       	st	Z, r24
    3046:	ca 01       	movw	r24, r20
    3048:	b9 01       	movw	r22, r18
    304a:	0e 94 82 11 	call	0x2304	; 0x2304 <__floatunsisf>
    304e:	21 2f       	mov	r18, r17
    3050:	23 70       	andi	r18, 0x03	; 3
    3052:	23 30       	cpi	r18, 0x03	; 3
    3054:	19 f0       	breq	.+6      	; 0x305c <strtod+0x1de>
    3056:	4b 01       	movw	r8, r22
    3058:	5c 01       	movw	r10, r24
    305a:	06 c0       	rjmp	.+12     	; 0x3068 <strtod+0x1ea>
    305c:	4b 01       	movw	r8, r22
    305e:	5c 01       	movw	r10, r24
    3060:	b7 fa       	bst	r11, 7
    3062:	b0 94       	com	r11
    3064:	b7 f8       	bld	r11, 7
    3066:	b0 94       	com	r11
    3068:	20 e0       	ldi	r18, 0x00	; 0
    306a:	30 e0       	ldi	r19, 0x00	; 0
    306c:	a9 01       	movw	r20, r18
    306e:	c5 01       	movw	r24, r10
    3070:	b4 01       	movw	r22, r8
    3072:	0e 94 d7 10 	call	0x21ae	; 0x21ae <__cmpsf2>
    3076:	88 23       	and	r24, r24
    3078:	09 f4       	brne	.+2      	; 0x307c <strtod+0x1fe>
    307a:	3e c0       	rjmp	.+124    	; 0x30f8 <strtod+0x27a>
    307c:	d7 ff       	sbrs	r29, 7
    307e:	06 c0       	rjmp	.+12     	; 0x308c <strtod+0x20e>
    3080:	d1 95       	neg	r29
    3082:	c1 95       	neg	r28
    3084:	d1 09       	sbc	r29, r1
    3086:	0f e4       	ldi	r16, 0x4F	; 79
    3088:	11 e0       	ldi	r17, 0x01	; 1
    308a:	02 c0       	rjmp	.+4      	; 0x3090 <strtod+0x212>
    308c:	07 e6       	ldi	r16, 0x67	; 103
    308e:	11 e0       	ldi	r17, 0x01	; 1
    3090:	68 01       	movw	r12, r16
    3092:	f8 e1       	ldi	r31, 0x18	; 24
    3094:	cf 1a       	sub	r12, r31
    3096:	d1 08       	sbc	r13, r1
    3098:	90 e2       	ldi	r25, 0x20	; 32
    309a:	e9 2e       	mov	r14, r25
    309c:	f1 2c       	mov	r15, r1
    309e:	ce 15       	cp	r28, r14
    30a0:	df 05       	cpc	r29, r15
    30a2:	74 f0       	brlt	.+28     	; 0x30c0 <strtod+0x242>
    30a4:	f8 01       	movw	r30, r16
    30a6:	25 91       	lpm	r18, Z+
    30a8:	35 91       	lpm	r19, Z+
    30aa:	45 91       	lpm	r20, Z+
    30ac:	54 91       	lpm	r21, Z
    30ae:	c5 01       	movw	r24, r10
    30b0:	b4 01       	movw	r22, r8
    30b2:	0e 94 bf 12 	call	0x257e	; 0x257e <__mulsf3>
    30b6:	4b 01       	movw	r8, r22
    30b8:	5c 01       	movw	r10, r24
    30ba:	ce 19       	sub	r28, r14
    30bc:	df 09       	sbc	r29, r15
    30be:	ef cf       	rjmp	.-34     	; 0x309e <strtod+0x220>
    30c0:	04 50       	subi	r16, 0x04	; 4
    30c2:	11 09       	sbc	r17, r1
    30c4:	f5 94       	asr	r15
    30c6:	e7 94       	ror	r14
    30c8:	0c 15       	cp	r16, r12
    30ca:	1d 05       	cpc	r17, r13
    30cc:	41 f7       	brne	.-48     	; 0x309e <strtod+0x220>
    30ce:	8a 2d       	mov	r24, r10
    30d0:	88 0f       	add	r24, r24
    30d2:	8b 2d       	mov	r24, r11
    30d4:	88 1f       	adc	r24, r24
    30d6:	8f 3f       	cpi	r24, 0xFF	; 255
    30d8:	49 f0       	breq	.+18     	; 0x30ec <strtod+0x26e>
    30da:	20 e0       	ldi	r18, 0x00	; 0
    30dc:	30 e0       	ldi	r19, 0x00	; 0
    30de:	a9 01       	movw	r20, r18
    30e0:	c5 01       	movw	r24, r10
    30e2:	b4 01       	movw	r22, r8
    30e4:	0e 94 d7 10 	call	0x21ae	; 0x21ae <__cmpsf2>
    30e8:	81 11       	cpse	r24, r1
    30ea:	06 c0       	rjmp	.+12     	; 0x30f8 <strtod+0x27a>
    30ec:	82 e2       	ldi	r24, 0x22	; 34
    30ee:	90 e0       	ldi	r25, 0x00	; 0
    30f0:	90 93 dd 03 	sts	0x03DD, r25	; 0x8003dd <errno+0x1>
    30f4:	80 93 dc 03 	sts	0x03DC, r24	; 0x8003dc <errno>
    30f8:	c5 01       	movw	r24, r10
    30fa:	b4 01       	movw	r22, r8
    30fc:	09 c0       	rjmp	.+18     	; 0x3110 <strtod+0x292>
    30fe:	60 e0       	ldi	r22, 0x00	; 0
    3100:	70 e0       	ldi	r23, 0x00	; 0
    3102:	80 e8       	ldi	r24, 0x80	; 128
    3104:	9f ef       	ldi	r25, 0xFF	; 255
    3106:	04 c0       	rjmp	.+8      	; 0x3110 <strtod+0x292>
    3108:	60 e0       	ldi	r22, 0x00	; 0
    310a:	70 e0       	ldi	r23, 0x00	; 0
    310c:	80 ec       	ldi	r24, 0xC0	; 192
    310e:	9f e7       	ldi	r25, 0x7F	; 127
    3110:	cd b7       	in	r28, 0x3d	; 61
    3112:	de b7       	in	r29, 0x3e	; 62
    3114:	ec e0       	ldi	r30, 0x0C	; 12
    3116:	0c 94 8e 19 	jmp	0x331c	; 0x331c <__epilogue_restores__+0xc>

0000311a <isspace>:
    311a:	91 11       	cpse	r25, r1
    311c:	0c 94 5e 19 	jmp	0x32bc	; 0x32bc <__ctype_isfalse>
    3120:	80 32       	cpi	r24, 0x20	; 32
    3122:	19 f0       	breq	.+6      	; 0x312a <isspace+0x10>
    3124:	89 50       	subi	r24, 0x09	; 9
    3126:	85 50       	subi	r24, 0x05	; 5
    3128:	c8 f7       	brcc	.-14     	; 0x311c <isspace+0x2>
    312a:	08 95       	ret

0000312c <strncasecmp_P>:
    312c:	fb 01       	movw	r30, r22
    312e:	dc 01       	movw	r26, r24
    3130:	41 50       	subi	r20, 0x01	; 1
    3132:	50 40       	sbci	r21, 0x00	; 0
    3134:	88 f0       	brcs	.+34     	; 0x3158 <strncasecmp_P+0x2c>
    3136:	8d 91       	ld	r24, X+
    3138:	81 34       	cpi	r24, 0x41	; 65
    313a:	1c f0       	brlt	.+6      	; 0x3142 <strncasecmp_P+0x16>
    313c:	8b 35       	cpi	r24, 0x5B	; 91
    313e:	0c f4       	brge	.+2      	; 0x3142 <strncasecmp_P+0x16>
    3140:	80 5e       	subi	r24, 0xE0	; 224
    3142:	65 91       	lpm	r22, Z+
    3144:	61 34       	cpi	r22, 0x41	; 65
    3146:	1c f0       	brlt	.+6      	; 0x314e <strncasecmp_P+0x22>
    3148:	6b 35       	cpi	r22, 0x5B	; 91
    314a:	0c f4       	brge	.+2      	; 0x314e <strncasecmp_P+0x22>
    314c:	60 5e       	subi	r22, 0xE0	; 224
    314e:	86 1b       	sub	r24, r22
    3150:	61 11       	cpse	r22, r1
    3152:	71 f3       	breq	.-36     	; 0x3130 <strncasecmp_P+0x4>
    3154:	99 0b       	sbc	r25, r25
    3156:	08 95       	ret
    3158:	88 1b       	sub	r24, r24
    315a:	fc cf       	rjmp	.-8      	; 0x3154 <strncasecmp_P+0x28>

0000315c <strnlen_P>:
    315c:	fc 01       	movw	r30, r24
    315e:	05 90       	lpm	r0, Z+
    3160:	61 50       	subi	r22, 0x01	; 1
    3162:	70 40       	sbci	r23, 0x00	; 0
    3164:	01 10       	cpse	r0, r1
    3166:	d8 f7       	brcc	.-10     	; 0x315e <strnlen_P+0x2>
    3168:	80 95       	com	r24
    316a:	90 95       	com	r25
    316c:	8e 0f       	add	r24, r30
    316e:	9f 1f       	adc	r25, r31
    3170:	08 95       	ret

00003172 <strnlen>:
    3172:	fc 01       	movw	r30, r24
    3174:	61 50       	subi	r22, 0x01	; 1
    3176:	70 40       	sbci	r23, 0x00	; 0
    3178:	01 90       	ld	r0, Z+
    317a:	01 10       	cpse	r0, r1
    317c:	d8 f7       	brcc	.-10     	; 0x3174 <strnlen+0x2>
    317e:	80 95       	com	r24
    3180:	90 95       	com	r25
    3182:	8e 0f       	add	r24, r30
    3184:	9f 1f       	adc	r25, r31
    3186:	08 95       	ret

00003188 <fputc>:
    3188:	0f 93       	push	r16
    318a:	1f 93       	push	r17
    318c:	cf 93       	push	r28
    318e:	df 93       	push	r29
    3190:	fb 01       	movw	r30, r22
    3192:	23 81       	ldd	r18, Z+3	; 0x03
    3194:	21 fd       	sbrc	r18, 1
    3196:	03 c0       	rjmp	.+6      	; 0x319e <fputc+0x16>
    3198:	8f ef       	ldi	r24, 0xFF	; 255
    319a:	9f ef       	ldi	r25, 0xFF	; 255
    319c:	2c c0       	rjmp	.+88     	; 0x31f6 <fputc+0x6e>
    319e:	22 ff       	sbrs	r18, 2
    31a0:	16 c0       	rjmp	.+44     	; 0x31ce <fputc+0x46>
    31a2:	46 81       	ldd	r20, Z+6	; 0x06
    31a4:	57 81       	ldd	r21, Z+7	; 0x07
    31a6:	24 81       	ldd	r18, Z+4	; 0x04
    31a8:	35 81       	ldd	r19, Z+5	; 0x05
    31aa:	42 17       	cp	r20, r18
    31ac:	53 07       	cpc	r21, r19
    31ae:	44 f4       	brge	.+16     	; 0x31c0 <fputc+0x38>
    31b0:	a0 81       	ld	r26, Z
    31b2:	b1 81       	ldd	r27, Z+1	; 0x01
    31b4:	9d 01       	movw	r18, r26
    31b6:	2f 5f       	subi	r18, 0xFF	; 255
    31b8:	3f 4f       	sbci	r19, 0xFF	; 255
    31ba:	31 83       	std	Z+1, r19	; 0x01
    31bc:	20 83       	st	Z, r18
    31be:	8c 93       	st	X, r24
    31c0:	26 81       	ldd	r18, Z+6	; 0x06
    31c2:	37 81       	ldd	r19, Z+7	; 0x07
    31c4:	2f 5f       	subi	r18, 0xFF	; 255
    31c6:	3f 4f       	sbci	r19, 0xFF	; 255
    31c8:	37 83       	std	Z+7, r19	; 0x07
    31ca:	26 83       	std	Z+6, r18	; 0x06
    31cc:	14 c0       	rjmp	.+40     	; 0x31f6 <fputc+0x6e>
    31ce:	8b 01       	movw	r16, r22
    31d0:	ec 01       	movw	r28, r24
    31d2:	fb 01       	movw	r30, r22
    31d4:	00 84       	ldd	r0, Z+8	; 0x08
    31d6:	f1 85       	ldd	r31, Z+9	; 0x09
    31d8:	e0 2d       	mov	r30, r0
    31da:	09 95       	icall
    31dc:	89 2b       	or	r24, r25
    31de:	e1 f6       	brne	.-72     	; 0x3198 <fputc+0x10>
    31e0:	d8 01       	movw	r26, r16
    31e2:	16 96       	adiw	r26, 0x06	; 6
    31e4:	8d 91       	ld	r24, X+
    31e6:	9c 91       	ld	r25, X
    31e8:	17 97       	sbiw	r26, 0x07	; 7
    31ea:	01 96       	adiw	r24, 0x01	; 1
    31ec:	17 96       	adiw	r26, 0x07	; 7
    31ee:	9c 93       	st	X, r25
    31f0:	8e 93       	st	-X, r24
    31f2:	16 97       	sbiw	r26, 0x06	; 6
    31f4:	ce 01       	movw	r24, r28
    31f6:	df 91       	pop	r29
    31f8:	cf 91       	pop	r28
    31fa:	1f 91       	pop	r17
    31fc:	0f 91       	pop	r16
    31fe:	08 95       	ret

00003200 <__ultoa_invert>:
    3200:	fa 01       	movw	r30, r20
    3202:	aa 27       	eor	r26, r26
    3204:	28 30       	cpi	r18, 0x08	; 8
    3206:	51 f1       	breq	.+84     	; 0x325c <__ultoa_invert+0x5c>
    3208:	20 31       	cpi	r18, 0x10	; 16
    320a:	81 f1       	breq	.+96     	; 0x326c <__ultoa_invert+0x6c>
    320c:	e8 94       	clt
    320e:	6f 93       	push	r22
    3210:	6e 7f       	andi	r22, 0xFE	; 254
    3212:	6e 5f       	subi	r22, 0xFE	; 254
    3214:	7f 4f       	sbci	r23, 0xFF	; 255
    3216:	8f 4f       	sbci	r24, 0xFF	; 255
    3218:	9f 4f       	sbci	r25, 0xFF	; 255
    321a:	af 4f       	sbci	r26, 0xFF	; 255
    321c:	b1 e0       	ldi	r27, 0x01	; 1
    321e:	3e d0       	rcall	.+124    	; 0x329c <__ultoa_invert+0x9c>
    3220:	b4 e0       	ldi	r27, 0x04	; 4
    3222:	3c d0       	rcall	.+120    	; 0x329c <__ultoa_invert+0x9c>
    3224:	67 0f       	add	r22, r23
    3226:	78 1f       	adc	r23, r24
    3228:	89 1f       	adc	r24, r25
    322a:	9a 1f       	adc	r25, r26
    322c:	a1 1d       	adc	r26, r1
    322e:	68 0f       	add	r22, r24
    3230:	79 1f       	adc	r23, r25
    3232:	8a 1f       	adc	r24, r26
    3234:	91 1d       	adc	r25, r1
    3236:	a1 1d       	adc	r26, r1
    3238:	6a 0f       	add	r22, r26
    323a:	71 1d       	adc	r23, r1
    323c:	81 1d       	adc	r24, r1
    323e:	91 1d       	adc	r25, r1
    3240:	a1 1d       	adc	r26, r1
    3242:	20 d0       	rcall	.+64     	; 0x3284 <__ultoa_invert+0x84>
    3244:	09 f4       	brne	.+2      	; 0x3248 <__ultoa_invert+0x48>
    3246:	68 94       	set
    3248:	3f 91       	pop	r19
    324a:	2a e0       	ldi	r18, 0x0A	; 10
    324c:	26 9f       	mul	r18, r22
    324e:	11 24       	eor	r1, r1
    3250:	30 19       	sub	r19, r0
    3252:	30 5d       	subi	r19, 0xD0	; 208
    3254:	31 93       	st	Z+, r19
    3256:	de f6       	brtc	.-74     	; 0x320e <__ultoa_invert+0xe>
    3258:	cf 01       	movw	r24, r30
    325a:	08 95       	ret
    325c:	46 2f       	mov	r20, r22
    325e:	47 70       	andi	r20, 0x07	; 7
    3260:	40 5d       	subi	r20, 0xD0	; 208
    3262:	41 93       	st	Z+, r20
    3264:	b3 e0       	ldi	r27, 0x03	; 3
    3266:	0f d0       	rcall	.+30     	; 0x3286 <__ultoa_invert+0x86>
    3268:	c9 f7       	brne	.-14     	; 0x325c <__ultoa_invert+0x5c>
    326a:	f6 cf       	rjmp	.-20     	; 0x3258 <__ultoa_invert+0x58>
    326c:	46 2f       	mov	r20, r22
    326e:	4f 70       	andi	r20, 0x0F	; 15
    3270:	40 5d       	subi	r20, 0xD0	; 208
    3272:	4a 33       	cpi	r20, 0x3A	; 58
    3274:	18 f0       	brcs	.+6      	; 0x327c <__ultoa_invert+0x7c>
    3276:	49 5d       	subi	r20, 0xD9	; 217
    3278:	31 fd       	sbrc	r19, 1
    327a:	40 52       	subi	r20, 0x20	; 32
    327c:	41 93       	st	Z+, r20
    327e:	02 d0       	rcall	.+4      	; 0x3284 <__ultoa_invert+0x84>
    3280:	a9 f7       	brne	.-22     	; 0x326c <__ultoa_invert+0x6c>
    3282:	ea cf       	rjmp	.-44     	; 0x3258 <__ultoa_invert+0x58>
    3284:	b4 e0       	ldi	r27, 0x04	; 4
    3286:	a6 95       	lsr	r26
    3288:	97 95       	ror	r25
    328a:	87 95       	ror	r24
    328c:	77 95       	ror	r23
    328e:	67 95       	ror	r22
    3290:	ba 95       	dec	r27
    3292:	c9 f7       	brne	.-14     	; 0x3286 <__ultoa_invert+0x86>
    3294:	00 97       	sbiw	r24, 0x00	; 0
    3296:	61 05       	cpc	r22, r1
    3298:	71 05       	cpc	r23, r1
    329a:	08 95       	ret
    329c:	9b 01       	movw	r18, r22
    329e:	ac 01       	movw	r20, r24
    32a0:	0a 2e       	mov	r0, r26
    32a2:	06 94       	lsr	r0
    32a4:	57 95       	ror	r21
    32a6:	47 95       	ror	r20
    32a8:	37 95       	ror	r19
    32aa:	27 95       	ror	r18
    32ac:	ba 95       	dec	r27
    32ae:	c9 f7       	brne	.-14     	; 0x32a2 <__ultoa_invert+0xa2>
    32b0:	62 0f       	add	r22, r18
    32b2:	73 1f       	adc	r23, r19
    32b4:	84 1f       	adc	r24, r20
    32b6:	95 1f       	adc	r25, r21
    32b8:	a0 1d       	adc	r26, r0
    32ba:	08 95       	ret

000032bc <__ctype_isfalse>:
    32bc:	99 27       	eor	r25, r25
    32be:	88 27       	eor	r24, r24

000032c0 <__ctype_istrue>:
    32c0:	08 95       	ret

000032c2 <__muluhisi3>:
    32c2:	0e 94 a3 19 	call	0x3346	; 0x3346 <__umulhisi3>
    32c6:	a5 9f       	mul	r26, r21
    32c8:	90 0d       	add	r25, r0
    32ca:	b4 9f       	mul	r27, r20
    32cc:	90 0d       	add	r25, r0
    32ce:	a4 9f       	mul	r26, r20
    32d0:	80 0d       	add	r24, r0
    32d2:	91 1d       	adc	r25, r1
    32d4:	11 24       	eor	r1, r1
    32d6:	08 95       	ret

000032d8 <__prologue_saves__>:
    32d8:	2f 92       	push	r2
    32da:	3f 92       	push	r3
    32dc:	4f 92       	push	r4
    32de:	5f 92       	push	r5
    32e0:	6f 92       	push	r6
    32e2:	7f 92       	push	r7
    32e4:	8f 92       	push	r8
    32e6:	9f 92       	push	r9
    32e8:	af 92       	push	r10
    32ea:	bf 92       	push	r11
    32ec:	cf 92       	push	r12
    32ee:	df 92       	push	r13
    32f0:	ef 92       	push	r14
    32f2:	ff 92       	push	r15
    32f4:	0f 93       	push	r16
    32f6:	1f 93       	push	r17
    32f8:	cf 93       	push	r28
    32fa:	df 93       	push	r29
    32fc:	cd b7       	in	r28, 0x3d	; 61
    32fe:	de b7       	in	r29, 0x3e	; 62
    3300:	ca 1b       	sub	r28, r26
    3302:	db 0b       	sbc	r29, r27
    3304:	0f b6       	in	r0, 0x3f	; 63
    3306:	f8 94       	cli
    3308:	de bf       	out	0x3e, r29	; 62
    330a:	0f be       	out	0x3f, r0	; 63
    330c:	cd bf       	out	0x3d, r28	; 61
    330e:	09 94       	ijmp

00003310 <__epilogue_restores__>:
    3310:	2a 88       	ldd	r2, Y+18	; 0x12
    3312:	39 88       	ldd	r3, Y+17	; 0x11
    3314:	48 88       	ldd	r4, Y+16	; 0x10
    3316:	5f 84       	ldd	r5, Y+15	; 0x0f
    3318:	6e 84       	ldd	r6, Y+14	; 0x0e
    331a:	7d 84       	ldd	r7, Y+13	; 0x0d
    331c:	8c 84       	ldd	r8, Y+12	; 0x0c
    331e:	9b 84       	ldd	r9, Y+11	; 0x0b
    3320:	aa 84       	ldd	r10, Y+10	; 0x0a
    3322:	b9 84       	ldd	r11, Y+9	; 0x09
    3324:	c8 84       	ldd	r12, Y+8	; 0x08
    3326:	df 80       	ldd	r13, Y+7	; 0x07
    3328:	ee 80       	ldd	r14, Y+6	; 0x06
    332a:	fd 80       	ldd	r15, Y+5	; 0x05
    332c:	0c 81       	ldd	r16, Y+4	; 0x04
    332e:	1b 81       	ldd	r17, Y+3	; 0x03
    3330:	aa 81       	ldd	r26, Y+2	; 0x02
    3332:	b9 81       	ldd	r27, Y+1	; 0x01
    3334:	ce 0f       	add	r28, r30
    3336:	d1 1d       	adc	r29, r1
    3338:	0f b6       	in	r0, 0x3f	; 63
    333a:	f8 94       	cli
    333c:	de bf       	out	0x3e, r29	; 62
    333e:	0f be       	out	0x3f, r0	; 63
    3340:	cd bf       	out	0x3d, r28	; 61
    3342:	ed 01       	movw	r28, r26
    3344:	08 95       	ret

00003346 <__umulhisi3>:
    3346:	a2 9f       	mul	r26, r18
    3348:	b0 01       	movw	r22, r0
    334a:	b3 9f       	mul	r27, r19
    334c:	c0 01       	movw	r24, r0
    334e:	a3 9f       	mul	r26, r19
    3350:	70 0d       	add	r23, r0
    3352:	81 1d       	adc	r24, r1
    3354:	11 24       	eor	r1, r1
    3356:	91 1d       	adc	r25, r1
    3358:	b2 9f       	mul	r27, r18
    335a:	70 0d       	add	r23, r0
    335c:	81 1d       	adc	r24, r1
    335e:	11 24       	eor	r1, r1
    3360:	91 1d       	adc	r25, r1
    3362:	08 95       	ret

00003364 <_exit>:
    3364:	f8 94       	cli

00003366 <__stop_program>:
    3366:	ff cf       	rjmp	.-2      	; 0x3366 <__stop_program>
